

Microchip Technology PIC18 LITE Macro Assembler V2.00 build -1524193055 
                                                                                               Fri Dec 21 20:39:17 2018

Microchip Technology Omniscient Code Generator v2.00 (Free mode) build 20180527130849
     1  0000                     
     2                           ; Version 2.00
     3                           ; Generated 27/05/2018 GMT
     4                           
     5                           ; 
     6                           ; Copyright © 2018, Microchip Technology Inc. and its subsidiaries ("Microchip")
     7                           ; All rights reserved.
     8                           ; 
     9                           ; This software is developed by Microchip Technology Inc. and its subsidiaries ("Microch
                                 ip").
    10                           ; 
    11                           ; Redistribution and use in source and binary forms, with or without modification, are
    12                           ; permitted provided that the following conditions are met:
    13                           ; 
    14                           ;     1. Redistributions of source code must retain the above copyright notice, this lis
                                 t of
    15                           ;        conditions and the following disclaimer.
    16                           ; 
    17                           ;     2. Redistributions in binary form must reproduce the above copyright notice, this 
                                 list
    18                           ;        of conditions and the following disclaimer in the documentation and/or other
    19                           ;        materials provided with the distribution.
    20                           ; 
    21                           ;     3. Microchip's name may not be used to endorse or promote products derived from th
                                 is
    22                           ;        software without specific prior written permission.
    23                           ; 
    24                           ; THIS SOFTWARE IS PROVIDED BY MICROCHIP "AS IS" AND ANY EXPRESS OR IMPLIED WARRANTIES,

    25                           ; INCLUDING, BUT NOT LIMITED TO, THE IMPLIED WARRANTIES OF MERCHANTABILITY AND FITNESS F
                                 OR
    26                           ; PURPOSE ARE DISCLAIMED.  IN NO EVENT SHALL MICROCHIP BE LIABLE FOR ANY DIRECT, INDIREC
                                 T,
    27                           ; INCIDENTAL, SPECIAL, EXEMPLARY, OR CONSEQUENTIAL DAMAGES (INCLUDING BUT NOT LIMITED TO
                                 
    28                           ; PROCUREMENT OF SUBSTITUTE GOODS OR SERVICES; LOSS OF USE, DATA OR PROFITS; OR BUSINESS
                                 
    29                           ; INTERRUPTION) HOWSOEVER CAUSED AND ON ANY THEORY OF LIABILITY, WHETHER IN CONTRACT, ST
                                 RICT
    30                           ; LIABILITY, OR TORT (INCLUDING NEGLIGENCE OR OTHERWISE) ARISING IN ANY WAY OUT OF THE U
                                 SE OF
    31                           ; THIS SOFTWARE, EVEN IF ADVISED OF THE POSSIBILITY OF SUCH DAMAGE.
    32                           ; 
    33                           
    34                           
    35                           ; 
    36                           ; Code-generator required, PIC18F4520 Definitions
    37                           ; 
    38  0000                     fsr0 equ 0FE9h
    39  0000                     fsr0h equ 0FEAh
    40  0000                     fsr0l equ 0FE9h
    41  0000                     fsr1 equ 0FE1h
    42  0000                     fsr1h equ 0FE2h
    43  0000                     fsr1l equ 0FE1h
    44  0000                     fsr2 equ 0FD9h
    45  0000                     fsr2h equ 0FDAh
    46  0000                     fsr2l equ 0FD9h
    47  0000                     indf0 equ 0FEFh
    48  0000                     indf1 equ 0FE7h
    49  0000                     indf2 equ 0FDFh
    50  0000                     intcon equ 0FF2h
    51  0000                     nvmcon equ 00h
    52  0000                     pcl equ 0FF9h
    53  0000                     pclath equ 0FFAh
    54  0000                     pclatu equ 0FFBh
    55  0000                     plusw0 equ 0FEBh
    56  0000                     plusw1 equ 0FE3h
    57  0000                     plusw2 equ 0FDBh
    58  0000                     postdec0 equ 0FEDh
    59  0000                     postdec1 equ 0FE5h
    60  0000                     postdec2 equ 0FDDh
    61  0000                     postinc0 equ 0FEEh
    62  0000                     postinc1 equ 0FE6h
    63  0000                     postinc2 equ 0FDEh
    64  0000                     preinc0 equ 0FECh
    65  0000                     preinc1 equ 0FE4h
    66  0000                     preinc2 equ 0FDCh
    67  0000                     prod equ 0FF3h
    68  0000                     prodh equ 0FF4h
    69  0000                     prodl equ 0FF3h
    70  0000                     status equ 0FD8h
    71  0000                     tablat equ 0FF5h
    72  0000                     tblptr equ 0FF6h
    73  0000                     tblptrh equ 0FF7h
    74  0000                     tblptrl equ 0FF6h
    75  0000                     tblptru equ 0FF8h
    76  0000                     tosl equ 0FFDh
    77  0000                     wreg equ 0FE8h
    78  0000                     
     2                           opt pagewidth 120
     3  0000                     byte0	macro	val
     4                           	(getbyte(val,0))
     5                           endm
     6  0000                     byte1	macro	val
     7                           	(getbyte(val,1))
     8                           endm
     9  0000                     byte2	macro	val
    10                           	(getbyte(val,2))
    11                           endm
    12  0000                     byte3	macro	val
    13                           	(getbyte(val,3))
    14                           endm
    15  0000                     byte4	macro	val
    16                           	(getbyte(val,4))
    17                           endm
    18  0000                     byte5	macro	val
    19                           	(getbyte(val,5))
    20                           endm
    21  0000                     byte6	macro	val
    22                           	(getbyte(val,6))
    23                           endm
    24  0000                     byte7	macro	val
    25                           	(getbyte(val,7))
    26                           endm
    27  0000                     getword	macro	val,pos
    28                           	(((val) >> (8 * pos)) and 0xffff)
    29                           endm
    30  0000                     word0	macro	val
    31                           	(getword(val,0))
    32                           endm
    33  0000                     word1	macro	val
    34                           	(getword(val,2))
    35                           endm
    36  0000                     word2	macro	val
    37                           	(getword(val,4))
    38                           endm
    39  0000                     word3	macro	val
    40                           	(getword(val,6))
    41                           endm
    42  0000                     gettword	macro	val,pos
    43                           	(((val) >> (8 * pos)) and 0xffffff)
    44                           endm
    45  0000                     tword0	macro	val
    46                           	(gettword(val,0))
    47                           endm
    48  0000                     tword1	macro	val
    49                           	(gettword(val,3))
    50                           endm
    51  0000                     tword2	macro	val
    52                           	(gettword(val,6))
    53                           endm
    54  0000                     getdword	macro	val,pos
    55                           	(((val) >> (8 * pos)) and 0xffffffff)
    56                           endm
    57  0000                     dword0	macro	val
    58                           	(getdword(val,0))
    59                           endm
    60  0000                     dword1	macro	val
    61                           	(getdword(val,4))
    62                           endm
    63  0000                     clrc   macro
    64                           	bcf	status,0
    65                           endm
    66  0000                     setc   macro
    67                           	bsf	status,0
    68                           endm
    69  0000                     clrz   macro
    70                           	bcf	status,2
    71                           endm
    72  0000                     setz   macro
    73                           	bsf	status,2
    74                           endm
    75  0000                     skipnz macro
    76                           	btfsc	status,2
    77                           endm
    78  0000                     skipz  macro
    79                           	btfss	status,2
    80                           endm
    81  0000                     skipnc macro
    82                           	btfsc	status,0
    83                           endm
    84  0000                     skipc  macro
    85                           	btfss	status,0
    86                           endm
    87  0000                     pushw macro
    88                           	movwf postinc1
    89                           endm
    90  0000                     pushf macro arg1
    91                           	movff arg1, postinc1
    92                           endm
    93  0000                     popw macro
    94                           	movf postdec1,f
    95                           	movf indf1,w
    96                           endm
    97  0000                     popf macro arg1
    98                           	movf postdec1,f
    99                           	movff indf1,arg1
   100                           endm
   101  0000                     popfc macro arg1
   102                           	movff plusw1,arg1
   103                           	decfsz fsr1,f
   104                           endm
   105  0000                     	global	__ramtop
   106                           	global	__accesstop
   107                           # 54 "C:\Program Files (x86)\Microchip\xc8\v2.00\pic\include\pic18f4520.h"
   108                           PORTA equ 0F80h ;# 
   109  0000                     # 273 "C:\Program Files (x86)\Microchip\xc8\v2.00\pic\include\pic18f4520.h"
   110                           PORTB equ 0F81h ;# 
   111  0000                     # 452 "C:\Program Files (x86)\Microchip\xc8\v2.00\pic\include\pic18f4520.h"
   112                           PORTC equ 0F82h ;# 
   113  0000                     # 634 "C:\Program Files (x86)\Microchip\xc8\v2.00\pic\include\pic18f4520.h"
   114                           PORTD equ 0F83h ;# 
   115  0000                     # 776 "C:\Program Files (x86)\Microchip\xc8\v2.00\pic\include\pic18f4520.h"
   116                           PORTE equ 0F84h ;# 
   117  0000                     # 979 "C:\Program Files (x86)\Microchip\xc8\v2.00\pic\include\pic18f4520.h"
   118                           LATA equ 0F89h ;# 
   119  0000                     # 1091 "C:\Program Files (x86)\Microchip\xc8\v2.00\pic\include\pic18f4520.h"
   120                           LATB equ 0F8Ah ;# 
   121  0000                     # 1203 "C:\Program Files (x86)\Microchip\xc8\v2.00\pic\include\pic18f4520.h"
   122                           LATC equ 0F8Bh ;# 
   123  0000                     # 1315 "C:\Program Files (x86)\Microchip\xc8\v2.00\pic\include\pic18f4520.h"
   124                           LATD equ 0F8Ch ;# 
   125  0000                     # 1427 "C:\Program Files (x86)\Microchip\xc8\v2.00\pic\include\pic18f4520.h"
   126                           LATE equ 0F8Dh ;# 
   127  0000                     # 1479 "C:\Program Files (x86)\Microchip\xc8\v2.00\pic\include\pic18f4520.h"
   128                           TRISA equ 0F92h ;# 
   129  0000                     # 1484 "C:\Program Files (x86)\Microchip\xc8\v2.00\pic\include\pic18f4520.h"
   130                           DDRA equ 0F92h ;# 
   131  0000                     # 1701 "C:\Program Files (x86)\Microchip\xc8\v2.00\pic\include\pic18f4520.h"
   132                           TRISB equ 0F93h ;# 
   133  0000                     # 1706 "C:\Program Files (x86)\Microchip\xc8\v2.00\pic\include\pic18f4520.h"
   134                           DDRB equ 0F93h ;# 
   135  0000                     # 1923 "C:\Program Files (x86)\Microchip\xc8\v2.00\pic\include\pic18f4520.h"
   136                           TRISC equ 0F94h ;# 
   137  0000                     # 1928 "C:\Program Files (x86)\Microchip\xc8\v2.00\pic\include\pic18f4520.h"
   138                           DDRC equ 0F94h ;# 
   139  0000                     # 2145 "C:\Program Files (x86)\Microchip\xc8\v2.00\pic\include\pic18f4520.h"
   140                           TRISD equ 0F95h ;# 
   141  0000                     # 2150 "C:\Program Files (x86)\Microchip\xc8\v2.00\pic\include\pic18f4520.h"
   142                           DDRD equ 0F95h ;# 
   143  0000                     # 2367 "C:\Program Files (x86)\Microchip\xc8\v2.00\pic\include\pic18f4520.h"
   144                           TRISE equ 0F96h ;# 
   145  0000                     # 2372 "C:\Program Files (x86)\Microchip\xc8\v2.00\pic\include\pic18f4520.h"
   146                           DDRE equ 0F96h ;# 
   147  0000                     # 2531 "C:\Program Files (x86)\Microchip\xc8\v2.00\pic\include\pic18f4520.h"
   148                           OSCTUNE equ 0F9Bh ;# 
   149  0000                     # 2596 "C:\Program Files (x86)\Microchip\xc8\v2.00\pic\include\pic18f4520.h"
   150                           PIE1 equ 0F9Dh ;# 
   151  0000                     # 2673 "C:\Program Files (x86)\Microchip\xc8\v2.00\pic\include\pic18f4520.h"
   152                           PIR1 equ 0F9Eh ;# 
   153  0000                     # 2750 "C:\Program Files (x86)\Microchip\xc8\v2.00\pic\include\pic18f4520.h"
   154                           IPR1 equ 0F9Fh ;# 
   155  0000                     # 2827 "C:\Program Files (x86)\Microchip\xc8\v2.00\pic\include\pic18f4520.h"
   156                           PIE2 equ 0FA0h ;# 
   157  0000                     # 2893 "C:\Program Files (x86)\Microchip\xc8\v2.00\pic\include\pic18f4520.h"
   158                           PIR2 equ 0FA1h ;# 
   159  0000                     # 2959 "C:\Program Files (x86)\Microchip\xc8\v2.00\pic\include\pic18f4520.h"
   160                           IPR2 equ 0FA2h ;# 
   161  0000                     # 3025 "C:\Program Files (x86)\Microchip\xc8\v2.00\pic\include\pic18f4520.h"
   162                           EECON1 equ 0FA6h ;# 
   163  0000                     # 3091 "C:\Program Files (x86)\Microchip\xc8\v2.00\pic\include\pic18f4520.h"
   164                           EECON2 equ 0FA7h ;# 
   165  0000                     # 3098 "C:\Program Files (x86)\Microchip\xc8\v2.00\pic\include\pic18f4520.h"
   166                           EEDATA equ 0FA8h ;# 
   167  0000                     # 3105 "C:\Program Files (x86)\Microchip\xc8\v2.00\pic\include\pic18f4520.h"
   168                           EEADR equ 0FA9h ;# 
   169  0000                     # 3112 "C:\Program Files (x86)\Microchip\xc8\v2.00\pic\include\pic18f4520.h"
   170                           RCSTA equ 0FABh ;# 
   171  0000                     # 3117 "C:\Program Files (x86)\Microchip\xc8\v2.00\pic\include\pic18f4520.h"
   172                           RCSTA1 equ 0FABh ;# 
   173  0000                     # 3322 "C:\Program Files (x86)\Microchip\xc8\v2.00\pic\include\pic18f4520.h"
   174                           TXSTA equ 0FACh ;# 
   175  0000                     # 3327 "C:\Program Files (x86)\Microchip\xc8\v2.00\pic\include\pic18f4520.h"
   176                           TXSTA1 equ 0FACh ;# 
   177  0000                     # 3578 "C:\Program Files (x86)\Microchip\xc8\v2.00\pic\include\pic18f4520.h"
   178                           TXREG equ 0FADh ;# 
   179  0000                     # 3583 "C:\Program Files (x86)\Microchip\xc8\v2.00\pic\include\pic18f4520.h"
   180                           TXREG1 equ 0FADh ;# 
   181  0000                     # 3590 "C:\Program Files (x86)\Microchip\xc8\v2.00\pic\include\pic18f4520.h"
   182                           RCREG equ 0FAEh ;# 
   183  0000                     # 3595 "C:\Program Files (x86)\Microchip\xc8\v2.00\pic\include\pic18f4520.h"
   184                           RCREG1 equ 0FAEh ;# 
   185  0000                     # 3602 "C:\Program Files (x86)\Microchip\xc8\v2.00\pic\include\pic18f4520.h"
   186                           SPBRG equ 0FAFh ;# 
   187  0000                     # 3607 "C:\Program Files (x86)\Microchip\xc8\v2.00\pic\include\pic18f4520.h"
   188                           SPBRG1 equ 0FAFh ;# 
   189  0000                     # 3614 "C:\Program Files (x86)\Microchip\xc8\v2.00\pic\include\pic18f4520.h"
   190                           SPBRGH equ 0FB0h ;# 
   191  0000                     # 3621 "C:\Program Files (x86)\Microchip\xc8\v2.00\pic\include\pic18f4520.h"
   192                           T3CON equ 0FB1h ;# 
   193  0000                     # 3733 "C:\Program Files (x86)\Microchip\xc8\v2.00\pic\include\pic18f4520.h"
   194                           TMR3 equ 0FB2h ;# 
   195  0000                     # 3740 "C:\Program Files (x86)\Microchip\xc8\v2.00\pic\include\pic18f4520.h"
   196                           TMR3L equ 0FB2h ;# 
   197  0000                     # 3747 "C:\Program Files (x86)\Microchip\xc8\v2.00\pic\include\pic18f4520.h"
   198                           TMR3H equ 0FB3h ;# 
   199  0000                     # 3754 "C:\Program Files (x86)\Microchip\xc8\v2.00\pic\include\pic18f4520.h"
   200                           CMCON equ 0FB4h ;# 
   201  0000                     # 3844 "C:\Program Files (x86)\Microchip\xc8\v2.00\pic\include\pic18f4520.h"
   202                           CVRCON equ 0FB5h ;# 
   203  0000                     # 3923 "C:\Program Files (x86)\Microchip\xc8\v2.00\pic\include\pic18f4520.h"
   204                           ECCP1AS equ 0FB6h ;# 
   205  0000                     # 3928 "C:\Program Files (x86)\Microchip\xc8\v2.00\pic\include\pic18f4520.h"
   206                           ECCPAS equ 0FB6h ;# 
   207  0000                     # 4085 "C:\Program Files (x86)\Microchip\xc8\v2.00\pic\include\pic18f4520.h"
   208                           PWM1CON equ 0FB7h ;# 
   209  0000                     # 4090 "C:\Program Files (x86)\Microchip\xc8\v2.00\pic\include\pic18f4520.h"
   210                           ECCP1DEL equ 0FB7h ;# 
   211  0000                     # 4223 "C:\Program Files (x86)\Microchip\xc8\v2.00\pic\include\pic18f4520.h"
   212                           BAUDCON equ 0FB8h ;# 
   213  0000                     # 4228 "C:\Program Files (x86)\Microchip\xc8\v2.00\pic\include\pic18f4520.h"
   214                           BAUDCTL equ 0FB8h ;# 
   215  0000                     # 4403 "C:\Program Files (x86)\Microchip\xc8\v2.00\pic\include\pic18f4520.h"
   216                           CCP2CON equ 0FBAh ;# 
   217  0000                     # 4482 "C:\Program Files (x86)\Microchip\xc8\v2.00\pic\include\pic18f4520.h"
   218                           CCPR2 equ 0FBBh ;# 
   219  0000                     # 4489 "C:\Program Files (x86)\Microchip\xc8\v2.00\pic\include\pic18f4520.h"
   220                           CCPR2L equ 0FBBh ;# 
   221  0000                     # 4496 "C:\Program Files (x86)\Microchip\xc8\v2.00\pic\include\pic18f4520.h"
   222                           CCPR2H equ 0FBCh ;# 
   223  0000                     # 4503 "C:\Program Files (x86)\Microchip\xc8\v2.00\pic\include\pic18f4520.h"
   224                           CCP1CON equ 0FBDh ;# 
   225  0000                     # 4600 "C:\Program Files (x86)\Microchip\xc8\v2.00\pic\include\pic18f4520.h"
   226                           CCPR1 equ 0FBEh ;# 
   227  0000                     # 4607 "C:\Program Files (x86)\Microchip\xc8\v2.00\pic\include\pic18f4520.h"
   228                           CCPR1L equ 0FBEh ;# 
   229  0000                     # 4614 "C:\Program Files (x86)\Microchip\xc8\v2.00\pic\include\pic18f4520.h"
   230                           CCPR1H equ 0FBFh ;# 
   231  0000                     # 4621 "C:\Program Files (x86)\Microchip\xc8\v2.00\pic\include\pic18f4520.h"
   232                           ADCON2 equ 0FC0h ;# 
   233  0000                     # 4692 "C:\Program Files (x86)\Microchip\xc8\v2.00\pic\include\pic18f4520.h"
   234                           ADCON1 equ 0FC1h ;# 
   235  0000                     # 4777 "C:\Program Files (x86)\Microchip\xc8\v2.00\pic\include\pic18f4520.h"
   236                           ADCON0 equ 0FC2h ;# 
   237  0000                     # 4896 "C:\Program Files (x86)\Microchip\xc8\v2.00\pic\include\pic18f4520.h"
   238                           ADRES equ 0FC3h ;# 
   239  0000                     # 4903 "C:\Program Files (x86)\Microchip\xc8\v2.00\pic\include\pic18f4520.h"
   240                           ADRESL equ 0FC3h ;# 
   241  0000                     # 4910 "C:\Program Files (x86)\Microchip\xc8\v2.00\pic\include\pic18f4520.h"
   242                           ADRESH equ 0FC4h ;# 
   243  0000                     # 4917 "C:\Program Files (x86)\Microchip\xc8\v2.00\pic\include\pic18f4520.h"
   244                           SSPCON2 equ 0FC5h ;# 
   245  0000                     # 5012 "C:\Program Files (x86)\Microchip\xc8\v2.00\pic\include\pic18f4520.h"
   246                           SSPCON1 equ 0FC6h ;# 
   247  0000                     # 5082 "C:\Program Files (x86)\Microchip\xc8\v2.00\pic\include\pic18f4520.h"
   248                           SSPSTAT equ 0FC7h ;# 
   249  0000                     # 5303 "C:\Program Files (x86)\Microchip\xc8\v2.00\pic\include\pic18f4520.h"
   250                           SSPADD equ 0FC8h ;# 
   251  0000                     # 5310 "C:\Program Files (x86)\Microchip\xc8\v2.00\pic\include\pic18f4520.h"
   252                           SSPBUF equ 0FC9h ;# 
   253  0000                     # 5317 "C:\Program Files (x86)\Microchip\xc8\v2.00\pic\include\pic18f4520.h"
   254                           T2CON equ 0FCAh ;# 
   255  0000                     # 5415 "C:\Program Files (x86)\Microchip\xc8\v2.00\pic\include\pic18f4520.h"
   256                           PR2 equ 0FCBh ;# 
   257  0000                     # 5420 "C:\Program Files (x86)\Microchip\xc8\v2.00\pic\include\pic18f4520.h"
   258                           MEMCON equ 0FCBh ;# 
   259  0000                     # 5525 "C:\Program Files (x86)\Microchip\xc8\v2.00\pic\include\pic18f4520.h"
   260                           TMR2 equ 0FCCh ;# 
   261  0000                     # 5532 "C:\Program Files (x86)\Microchip\xc8\v2.00\pic\include\pic18f4520.h"
   262                           T1CON equ 0FCDh ;# 
   263  0000                     # 5635 "C:\Program Files (x86)\Microchip\xc8\v2.00\pic\include\pic18f4520.h"
   264                           TMR1 equ 0FCEh ;# 
   265  0000                     # 5642 "C:\Program Files (x86)\Microchip\xc8\v2.00\pic\include\pic18f4520.h"
   266                           TMR1L equ 0FCEh ;# 
   267  0000                     # 5649 "C:\Program Files (x86)\Microchip\xc8\v2.00\pic\include\pic18f4520.h"
   268                           TMR1H equ 0FCFh ;# 
   269  0000                     # 5656 "C:\Program Files (x86)\Microchip\xc8\v2.00\pic\include\pic18f4520.h"
   270                           RCON equ 0FD0h ;# 
   271  0000                     # 5789 "C:\Program Files (x86)\Microchip\xc8\v2.00\pic\include\pic18f4520.h"
   272                           WDTCON equ 0FD1h ;# 
   273  0000                     # 5817 "C:\Program Files (x86)\Microchip\xc8\v2.00\pic\include\pic18f4520.h"
   274                           HLVDCON equ 0FD2h ;# 
   275  0000                     # 5822 "C:\Program Files (x86)\Microchip\xc8\v2.00\pic\include\pic18f4520.h"
   276                           LVDCON equ 0FD2h ;# 
   277  0000                     # 6087 "C:\Program Files (x86)\Microchip\xc8\v2.00\pic\include\pic18f4520.h"
   278                           OSCCON equ 0FD3h ;# 
   279  0000                     # 6170 "C:\Program Files (x86)\Microchip\xc8\v2.00\pic\include\pic18f4520.h"
   280                           T0CON equ 0FD5h ;# 
   281  0000                     # 6253 "C:\Program Files (x86)\Microchip\xc8\v2.00\pic\include\pic18f4520.h"
   282                           TMR0 equ 0FD6h ;# 
   283  0000                     # 6260 "C:\Program Files (x86)\Microchip\xc8\v2.00\pic\include\pic18f4520.h"
   284                           TMR0L equ 0FD6h ;# 
   285  0000                     # 6267 "C:\Program Files (x86)\Microchip\xc8\v2.00\pic\include\pic18f4520.h"
   286                           TMR0H equ 0FD7h ;# 
   287  0000                     # 6274 "C:\Program Files (x86)\Microchip\xc8\v2.00\pic\include\pic18f4520.h"
   288                           STATUS equ 0FD8h ;# 
   289  0000                     # 6345 "C:\Program Files (x86)\Microchip\xc8\v2.00\pic\include\pic18f4520.h"
   290                           FSR2 equ 0FD9h ;# 
   291  0000                     # 6352 "C:\Program Files (x86)\Microchip\xc8\v2.00\pic\include\pic18f4520.h"
   292                           FSR2L equ 0FD9h ;# 
   293  0000                     # 6359 "C:\Program Files (x86)\Microchip\xc8\v2.00\pic\include\pic18f4520.h"
   294                           FSR2H equ 0FDAh ;# 
   295  0000                     # 6366 "C:\Program Files (x86)\Microchip\xc8\v2.00\pic\include\pic18f4520.h"
   296                           PLUSW2 equ 0FDBh ;# 
   297  0000                     # 6373 "C:\Program Files (x86)\Microchip\xc8\v2.00\pic\include\pic18f4520.h"
   298                           PREINC2 equ 0FDCh ;# 
   299  0000                     # 6380 "C:\Program Files (x86)\Microchip\xc8\v2.00\pic\include\pic18f4520.h"
   300                           POSTDEC2 equ 0FDDh ;# 
   301  0000                     # 6387 "C:\Program Files (x86)\Microchip\xc8\v2.00\pic\include\pic18f4520.h"
   302                           POSTINC2 equ 0FDEh ;# 
   303  0000                     # 6394 "C:\Program Files (x86)\Microchip\xc8\v2.00\pic\include\pic18f4520.h"
   304                           INDF2 equ 0FDFh ;# 
   305  0000                     # 6401 "C:\Program Files (x86)\Microchip\xc8\v2.00\pic\include\pic18f4520.h"
   306                           BSR equ 0FE0h ;# 
   307  0000                     # 6408 "C:\Program Files (x86)\Microchip\xc8\v2.00\pic\include\pic18f4520.h"
   308                           FSR1 equ 0FE1h ;# 
   309  0000                     # 6415 "C:\Program Files (x86)\Microchip\xc8\v2.00\pic\include\pic18f4520.h"
   310                           FSR1L equ 0FE1h ;# 
   311  0000                     # 6422 "C:\Program Files (x86)\Microchip\xc8\v2.00\pic\include\pic18f4520.h"
   312                           FSR1H equ 0FE2h ;# 
   313  0000                     # 6429 "C:\Program Files (x86)\Microchip\xc8\v2.00\pic\include\pic18f4520.h"
   314                           PLUSW1 equ 0FE3h ;# 
   315  0000                     # 6436 "C:\Program Files (x86)\Microchip\xc8\v2.00\pic\include\pic18f4520.h"
   316                           PREINC1 equ 0FE4h ;# 
   317  0000                     # 6443 "C:\Program Files (x86)\Microchip\xc8\v2.00\pic\include\pic18f4520.h"
   318                           POSTDEC1 equ 0FE5h ;# 
   319  0000                     # 6450 "C:\Program Files (x86)\Microchip\xc8\v2.00\pic\include\pic18f4520.h"
   320                           POSTINC1 equ 0FE6h ;# 
   321  0000                     # 6457 "C:\Program Files (x86)\Microchip\xc8\v2.00\pic\include\pic18f4520.h"
   322                           INDF1 equ 0FE7h ;# 
   323  0000                     # 6464 "C:\Program Files (x86)\Microchip\xc8\v2.00\pic\include\pic18f4520.h"
   324                           WREG equ 0FE8h ;# 
   325  0000                     # 6476 "C:\Program Files (x86)\Microchip\xc8\v2.00\pic\include\pic18f4520.h"
   326                           FSR0 equ 0FE9h ;# 
   327  0000                     # 6483 "C:\Program Files (x86)\Microchip\xc8\v2.00\pic\include\pic18f4520.h"
   328                           FSR0L equ 0FE9h ;# 
   329  0000                     # 6490 "C:\Program Files (x86)\Microchip\xc8\v2.00\pic\include\pic18f4520.h"
   330                           FSR0H equ 0FEAh ;# 
   331  0000                     # 6497 "C:\Program Files (x86)\Microchip\xc8\v2.00\pic\include\pic18f4520.h"
   332                           PLUSW0 equ 0FEBh ;# 
   333  0000                     # 6504 "C:\Program Files (x86)\Microchip\xc8\v2.00\pic\include\pic18f4520.h"
   334                           PREINC0 equ 0FECh ;# 
   335  0000                     # 6511 "C:\Program Files (x86)\Microchip\xc8\v2.00\pic\include\pic18f4520.h"
   336                           POSTDEC0 equ 0FEDh ;# 
   337  0000                     # 6518 "C:\Program Files (x86)\Microchip\xc8\v2.00\pic\include\pic18f4520.h"
   338                           POSTINC0 equ 0FEEh ;# 
   339  0000                     # 6525 "C:\Program Files (x86)\Microchip\xc8\v2.00\pic\include\pic18f4520.h"
   340                           INDF0 equ 0FEFh ;# 
   341  0000                     # 6532 "C:\Program Files (x86)\Microchip\xc8\v2.00\pic\include\pic18f4520.h"
   342                           INTCON3 equ 0FF0h ;# 
   343  0000                     # 6624 "C:\Program Files (x86)\Microchip\xc8\v2.00\pic\include\pic18f4520.h"
   344                           INTCON2 equ 0FF1h ;# 
   345  0000                     # 6694 "C:\Program Files (x86)\Microchip\xc8\v2.00\pic\include\pic18f4520.h"
   346                           INTCON equ 0FF2h ;# 
   347  0000                     # 6811 "C:\Program Files (x86)\Microchip\xc8\v2.00\pic\include\pic18f4520.h"
   348                           PROD equ 0FF3h ;# 
   349  0000                     # 6818 "C:\Program Files (x86)\Microchip\xc8\v2.00\pic\include\pic18f4520.h"
   350                           PRODL equ 0FF3h ;# 
   351  0000                     # 6825 "C:\Program Files (x86)\Microchip\xc8\v2.00\pic\include\pic18f4520.h"
   352                           PRODH equ 0FF4h ;# 
   353  0000                     # 6832 "C:\Program Files (x86)\Microchip\xc8\v2.00\pic\include\pic18f4520.h"
   354                           TABLAT equ 0FF5h ;# 
   355  0000                     # 6841 "C:\Program Files (x86)\Microchip\xc8\v2.00\pic\include\pic18f4520.h"
   356                           TBLPTR equ 0FF6h ;# 
   357  0000                     # 6848 "C:\Program Files (x86)\Microchip\xc8\v2.00\pic\include\pic18f4520.h"
   358                           TBLPTRL equ 0FF6h ;# 
   359  0000                     # 6855 "C:\Program Files (x86)\Microchip\xc8\v2.00\pic\include\pic18f4520.h"
   360                           TBLPTRH equ 0FF7h ;# 
   361  0000                     # 6862 "C:\Program Files (x86)\Microchip\xc8\v2.00\pic\include\pic18f4520.h"
   362                           TBLPTRU equ 0FF8h ;# 
   363  0000                     # 6871 "C:\Program Files (x86)\Microchip\xc8\v2.00\pic\include\pic18f4520.h"
   364                           PCLAT equ 0FF9h ;# 
   365  0000                     # 6878 "C:\Program Files (x86)\Microchip\xc8\v2.00\pic\include\pic18f4520.h"
   366                           PC equ 0FF9h ;# 
   367  0000                     # 6885 "C:\Program Files (x86)\Microchip\xc8\v2.00\pic\include\pic18f4520.h"
   368                           PCL equ 0FF9h ;# 
   369  0000                     # 6892 "C:\Program Files (x86)\Microchip\xc8\v2.00\pic\include\pic18f4520.h"
   370                           PCLATH equ 0FFAh ;# 
   371  0000                     # 6899 "C:\Program Files (x86)\Microchip\xc8\v2.00\pic\include\pic18f4520.h"
   372                           PCLATU equ 0FFBh ;# 
   373  0000                     # 6906 "C:\Program Files (x86)\Microchip\xc8\v2.00\pic\include\pic18f4520.h"
   374                           STKPTR equ 0FFCh ;# 
   375  0000                     # 6980 "C:\Program Files (x86)\Microchip\xc8\v2.00\pic\include\pic18f4520.h"
   376                           TOS equ 0FFDh ;# 
   377  0000                     # 6987 "C:\Program Files (x86)\Microchip\xc8\v2.00\pic\include\pic18f4520.h"
   378                           TOSL equ 0FFDh ;# 
   379  0000                     # 6994 "C:\Program Files (x86)\Microchip\xc8\v2.00\pic\include\pic18f4520.h"
   380                           TOSH equ 0FFEh ;# 
   381  0000                     # 7001 "C:\Program Files (x86)\Microchip\xc8\v2.00\pic\include\pic18f4520.h"
   382                           TOSU equ 0FFFh ;# 
   383  0000                     	FNCALL	_main,_ClearBuffer
   384                           	FNCALL	_main,_INTERRUPT_Initialize
   385                           	FNCALL	_main,_LED_Init
   386                           	FNCALL	_main,_Mode2_1
   387                           	FNCALL	_main,_Mode3
   388                           	FNCALL	_main,_UART_Initialize
   389                           	FNCALL	_main,_strstr
   390                           	FNCALL	_strstr,_strchr
   391                           	FNCALL	_strstr,_strlen
   392                           	FNCALL	_strstr,_strncmp
   393                           	FNCALL	_Mode3,_ADC_Read
   394                           	FNCALL	_Mode3,_ClearBuffer
   395                           	FNCALL	_Mode3,_PrintVoltage
   396                           	FNCALL	_Mode3,_UART_Write
   397                           	FNCALL	_Mode3,_adc_init_2_2
   398                           	FNCALL	_PrintVoltage,_UART_Write
   399                           	FNCALL	_PrintVoltage,___awdiv
   400                           	FNCALL	_PrintVoltage,___flmul
   401                           	FNCALL	_PrintVoltage,___fltol
   402                           	FNCALL	_PrintVoltage,___wmul
   403                           	FNCALL	_PrintVoltage,___xxtofl
   404                           	FNCALL	_Mode2_1,_ClearBuffer
   405                           	FNCALL	_Mode2_1,_adc_init_2_1
   406                           	FNCALL	_Mode2_1,_ccp2_init
   407                           	FNCALL	_Mode2_1,_tmr_init
   408                           	FNROOT	_main
   409                           	FNCALL	_Lo_ISR,_MyusartRead
   410                           	FNCALL	_MyusartRead,___awmod
   411                           	FNCALL	_MyusartRead,i1_UART_Write
   412                           	FNCALL	intlevel1,_Lo_ISR
   413                           	global	intlevel1
   414                           	FNROOT	intlevel1
   415                           	FNCALL	_Hi_ISR,i2_PrintVoltage
   416                           	FNCALL	_Hi_ISR,i2___awdiv
   417                           	FNCALL	_Hi_ISR,i2_strstr
   418                           	FNCALL	i2_strstr,i2_strchr
   419                           	FNCALL	i2_strstr,i2_strlen
   420                           	FNCALL	i2_strstr,i2_strncmp
   421                           	FNCALL	i2_PrintVoltage,i2_UART_Write
   422                           	FNCALL	i2_PrintVoltage,i2___awdiv
   423                           	FNCALL	i2_PrintVoltage,i2___flmul
   424                           	FNCALL	i2_PrintVoltage,i2___fltol
   425                           	FNCALL	i2_PrintVoltage,i2___wmul
   426                           	FNCALL	i2_PrintVoltage,i2___xxtofl
   427                           	FNCALL	intlevel2,_Hi_ISR
   428                           	global	intlevel2
   429                           	FNROOT	intlevel2
   430                           	global	_sum
   431                           	global	_count
   432                           	global	_mode
   433                           	global	_lenStr
   434                           	global	_mystring
   435                           	global	_TMR1
   436                           _TMR1	set	0xFCE
   437  0000                     	global	_CCPR2
   438                           _CCPR2	set	0xFBB
   439  0000                     	global	_ADRES
   440                           _ADRES	set	0xFC3
   441  0000                     	global	_T1CONbits
   442                           _T1CONbits	set	0xFCD
   443  0000                     	global	_CCP1CONbits
   444                           _CCP1CONbits	set	0xFBD
   445  0000                     	global	_PR2
   446                           _PR2	set	0xFCB
   447  0000                     	global	_TMR2
   448                           _TMR2	set	0xFCC
   449  0000                     	global	_T2CON
   450                           _T2CON	set	0xFCA
   451  0000                     	global	_CCPR1L
   452                           _CCPR1L	set	0xFBE
   453  0000                     	global	_RCREG
   454                           _RCREG	set	0xFAE
   455  0000                     	global	_TXREG
   456                           _TXREG	set	0xFAD
   457  0000                     	global	_IPR1bits
   458                           _IPR1bits	set	0xF9F
   459  0000                     	global	_RCSTAbits
   460                           _RCSTAbits	set	0xFAB
   461  0000                     	global	_SPBRG
   462                           _SPBRG	set	0xFAF
   463  0000                     	global	_BAUDCONbits
   464                           _BAUDCONbits	set	0xFB8
   465  0000                     	global	_TXSTAbits
   466                           _TXSTAbits	set	0xFAC
   467  0000                     	global	_TRISCbits
   468                           _TRISCbits	set	0xF94
   469  0000                     	global	_RCONbits
   470                           _RCONbits	set	0xFD0
   471  0000                     	global	_T3CONbits
   472                           _T3CONbits	set	0xFB1
   473  0000                     	global	_ADRESL
   474                           _ADRESL	set	0xFC3
   475  0000                     	global	_ADRESH
   476                           _ADRESH	set	0xFC4
   477  0000                     	global	_TRISA
   478                           _TRISA	set	0xF92
   479  0000                     	global	_INTCONbits
   480                           _INTCONbits	set	0xFF2
   481  0000                     	global	_PIE1bits
   482                           _PIE1bits	set	0xF9D
   483  0000                     	global	_ADCON2bits
   484                           _ADCON2bits	set	0xFC0
   485  0000                     	global	_TRISEbits
   486                           _TRISEbits	set	0xF96
   487  0000                     	global	_ADCON1bits
   488                           _ADCON1bits	set	0xFC1
   489  0000                     	global	_PIR2bits
   490                           _PIR2bits	set	0xFA1
   491  0000                     	global	_ADCON0bits
   492                           _ADCON0bits	set	0xFC2
   493  0000                     	global	_PIR1bits
   494                           _PIR1bits	set	0xF9E
   495  0000                     	global	_TRISD
   496                           _TRISD	set	0xF95
   497  0000                     	global	_TMR1IF
   498                           _TMR1IF	set	0x7CF0
   499  0000                     	global	_CREN
   500                           _CREN	set	0x7D5C
   501  0000                     	global	_RCIF
   502                           _RCIF	set	0x7CF5
   503  0000                     	global	_T3CCP2
   504                           _T3CCP2	set	0x7D8E
   505  0000                     	global	_T3CCP1
   506                           _T3CCP1	set	0x7D8B
   507  0000                     	global	_CCP2IP
   508                           _CCP2IP	set	0x7D10
   509  0000                     	global	_CCP2M0
   510                           _CCP2M0	set	0x7DD0
   511  0000                     	global	_CCP2M1
   512                           _CCP2M1	set	0x7DD1
   513  0000                     	global	_CCP2M2
   514                           _CCP2M2	set	0x7DD2
   515  0000                     	global	_CCP2M3
   516                           _CCP2M3	set	0x7DD3
   517  0000                     	global	_ADFM
   518                           _ADFM	set	0x7E07
   519  0000                     	global	_ADIP
   520                           _ADIP	set	0x7CFE
   521  0000                     	global	_IPEN
   522                           _IPEN	set	0x7E87
   523  0000                     	global	_TMR3ON
   524                           _TMR3ON	set	0x7D88
   525  0000                     	global	_CCP2IE
   526                           _CCP2IE	set	0x7D00
   527  0000                     psect	smallconst,class=SMALLCONST,space=0,reloc=2,noexec
   528                           global __psmallconst
   529                           __psmallconst:
   530  000600                     	db	0
   531  000600  00                 	
   532                           STR_1:
   533  000601                     	db	10
   534  000601  0A                 	db	72	;'H'
   535  000602  48                 	db	101	;'e'
   536  000603  65                 	db	108	;'l'
   537  000604  6C                 	db	108	;'l'
   538  000605  6C                 	db	111	;'o'
   539  000606  6F                 	db	32
   540  000607  20                 	db	87	;'W'
   541  000608  57                 	db	111	;'o'
   542  000609  6F                 	db	114	;'r'
   543  00060A  72                 	db	108	;'l'
   544  00060B  6C                 	db	100	;'d'
   545  00060C  64                 	db	10
   546  00060D  0A                 	db	0
   547  00060E  00                 	
   548                           STR_3:
   549  00060F                     	db	99	;'c'
   550  00060F  63                 	db	108	;'l'
   551  000610  6C                 	db	101	;'e'
   552  000611  65                 	db	97	;'a'
   553  000612  61                 	db	114	;'r'
   554  000613  72                 	db	0
   555  000614  00                 	
   556                           STR_4:
   557  000615                     	db	112	;'p'
   558  000615  70                 	db	114	;'r'
   559  000616  72                 	db	105	;'i'
   560  000617  69                 	db	110	;'n'
   561  000618  6E                 	db	116	;'t'
   562  000619  74                 	db	0
   563  00061A  00                 	
   564                           STR_5:
   565  00061B                     	db	97	;'a'
   566  00061B  61                 	db	117	;'u'
   567  00061C  75                 	db	116	;'t'
   568  00061D  74                 	db	111	;'o'
   569  00061E  6F                 	db	0
   570  00061F  00                 	
   571                           STR_2:
   572  000620                     	db	46
   573  000620  2E                 	db	0
   574  000621  00                 STR_6	equ	STR_2+0
   575  0000                     ; #config settings
   576                           global __CFG_OSC$INTIO67
   577                           __CFG_OSC$INTIO67 equ 0x0
   578  0000                     global __CFG_FCMEN$OFF
   579                           __CFG_FCMEN$OFF equ 0x0
   580  0000                     global __CFG_IESO$ON
   581                           __CFG_IESO$ON equ 0x0
   582  0000                     global __CFG_PWRT$OFF
   583                           __CFG_PWRT$OFF equ 0x0
   584  0000                     global __CFG_BOREN$SBORDIS
   585                           __CFG_BOREN$SBORDIS equ 0x0
   586  0000                     global __CFG_BORV$3
   587                           __CFG_BORV$3 equ 0x0
   588  0000                     global __CFG_WDT$OFF
   589                           __CFG_WDT$OFF equ 0x0
   590  0000                     global __CFG_WDTPS$1
   591                           __CFG_WDTPS$1 equ 0x0
   592  0000                     global __CFG_CCP2MX$PORTC
   593                           __CFG_CCP2MX$PORTC equ 0x0
   594  0000                     global __CFG_PBADEN$ON
   595                           __CFG_PBADEN$ON equ 0x0
   596  0000                     global __CFG_LPT1OSC$OFF
   597                           __CFG_LPT1OSC$OFF equ 0x0
   598  0000                     global __CFG_MCLRE$ON
   599                           __CFG_MCLRE$ON equ 0x0
   600  0000                     global __CFG_STVREN$ON
   601                           __CFG_STVREN$ON equ 0x0
   602  0000                     global __CFG_LVP$OFF
   603                           __CFG_LVP$OFF equ 0x0
   604  0000                     global __CFG_XINST$OFF
   605                           __CFG_XINST$OFF equ 0x0
   606  0000                     global __CFG_CP0$OFF
   607                           __CFG_CP0$OFF equ 0x0
   608  0000                     global __CFG_CP1$OFF
   609                           __CFG_CP1$OFF equ 0x0
   610  0000                     global __CFG_CP2$OFF
   611                           __CFG_CP2$OFF equ 0x0
   612  0000                     global __CFG_CP3$OFF
   613                           __CFG_CP3$OFF equ 0x0
   614  0000                     global __CFG_CPB$OFF
   615                           __CFG_CPB$OFF equ 0x0
   616  0000                     global __CFG_CPD$OFF
   617                           __CFG_CPD$OFF equ 0x0
   618  0000                     global __CFG_WRT0$OFF
   619                           __CFG_WRT0$OFF equ 0x0
   620  0000                     global __CFG_WRT1$OFF
   621                           __CFG_WRT1$OFF equ 0x0
   622  0000                     global __CFG_WRT2$OFF
   623                           __CFG_WRT2$OFF equ 0x0
   624  0000                     global __CFG_WRT3$OFF
   625                           __CFG_WRT3$OFF equ 0x0
   626  0000                     global __CFG_WRTC$OFF
   627                           __CFG_WRTC$OFF equ 0x0
   628  0000                     global __CFG_WRTB$OFF
   629                           __CFG_WRTB$OFF equ 0x0
   630  0000                     global __CFG_WRTD$OFF
   631                           __CFG_WRTD$OFF equ 0x0
   632  0000                     global __CFG_EBTR0$OFF
   633                           __CFG_EBTR0$OFF equ 0x0
   634  0000                     global __CFG_EBTR1$OFF
   635                           __CFG_EBTR1$OFF equ 0x0
   636  0000                     global __CFG_EBTR2$OFF
   637                           __CFG_EBTR2$OFF equ 0x0
   638  0000                     global __CFG_EBTR3$OFF
   639                           __CFG_EBTR3$OFF equ 0x0
   640  0000                     global __CFG_EBTRB$OFF
   641                           __CFG_EBTRB$OFF equ 0x0
   642  0000                     	file	"C:\Users\febri\AppData\Local\Temp\scs8."
   643                           	line	#
   644                           psect	cinit,class=CODE,delta=1,reloc=2
   645                           global __pcinit
   646                           __pcinit:
   647  0025CE                     global start_initialization
   648                           start_initialization:
   649  0025CE                     
   650                           global __initialization
   651                           __initialization:
   652  0025CE                     psect	bssCOMRAM,class=COMRAM,space=1,noexec
   653                           global __pbssCOMRAM
   654                           __pbssCOMRAM:
   655  000045                     	global	_str
   656                           	global	_str
   657                           _str:
   658  000045                            ds      10
   659  000045                     	global	_sum
   660                           _sum:
   661  00004F                            ds      2
   662  00004F                     	global	_count
   663                           _count:
   664  000051                            ds      2
   665  000051                     psect	bssBANK0,class=BANK0,space=1,noexec,lowdata
   666                           global __pbssBANK0
   667                           __pbssBANK0:
   668  0000C7                     	global	_mode
   669                           _mode:
   670  0000C7                            ds      2
   671  0000C7                     	global	_lenStr
   672                           _lenStr:
   673  0000C9                            ds      2
   674  0000C9                     	global	_mystring
   675                           _mystring:
   676  0000CB                            ds      10
   677  0000CB                     	file	"C:\Users\febri\AppData\Local\Temp\scs8."
   678                           	line	#
   679                           psect	cinit
   680                           ; Clear objects allocated to BANK0 (14 bytes)
   681                           	global __pbssBANK0
   682                           lfsr	0,__pbssBANK0
   683  0025CE  EE00  F0C7         movlw	14
   684  0025D2  0E0E               clear_0:
   685  0025D4                     clrf	postinc0,c
   686  0025D4  6AEE               decf	wreg
   687  0025D6  06E8               bnz	clear_0
   688  0025D8  E1FD               ; Clear objects allocated to COMRAM (14 bytes)
   689                           	global __pbssCOMRAM
   690                           lfsr	0,__pbssCOMRAM
   691  0025DA  EE00  F045         movlw	14
   692  0025DE  0E0E               clear_1:
   693  0025E0                     clrf	postinc0,c
   694  0025E0  6AEE               decf	wreg
   695  0025E2  06E8               bnz	clear_1
   696  0025E4  E1FD               psect cinit,class=CODE,delta=1
   697                           global end_of_initialization,__end_of__initialization
   698                           
   699                           ;End of C runtime variable initialization code
   700                           
   701                           end_of_initialization:
   702  0025E6                     __end_of__initialization:
   703  0025E6                     	bcf int$flags,0,c ;clear compiler interrupt flag (level 1)
   704  0025E6  9053               	bcf int$flags,1,c ;clear compiler interrupt flag (level 2)
   705  0025E8  9253               	GLOBAL	__Lsmallconst
   706                           	movlw	low highword(__Lsmallconst)
   707  0025EA  0E00               	movwf	tblptru
   708  0025EC  6EF8               	movlw	high(__Lsmallconst)
   709  0025EE  0E06               	movwf	tblptrh
   710  0025F0  6EF7               movlb 0
   711  0025F2  0100               goto _main	;jump to C main() function
   712  0025F4  EFD5  F010         psect	cstackBANK0,class=BANK0,space=1,noexec
   713                           global __pcstackBANK0
   714                           __pcstackBANK0:
   715  000080                     ??i1_UART_Write:	; 1 bytes @ 0x0
   716  000080                     	global	?___awmod
   717                           ?___awmod:	; 2 bytes @ 0x0
   718  000080                     	global	i1UART_Write@data
   719                           i1UART_Write@data:	; 1 bytes @ 0x0
   720  000080                     	global	___awmod@dividend
   721                           ___awmod@dividend:	; 2 bytes @ 0x0
   722  000080                     	ds   2
   723  000080                     	global	___awmod@divisor
   724                           ___awmod@divisor:	; 2 bytes @ 0x2
   725  000082                     	ds   2
   726  000082                     ??___awmod:	; 1 bytes @ 0x4
   727  000084                     	global	___awmod@counter
   728                           ___awmod@counter:	; 1 bytes @ 0x4
   729  000084                     	ds   1
   730  000084                     	global	___awmod@sign
   731                           ___awmod@sign:	; 1 bytes @ 0x5
   732  000085                     	ds   1
   733  000085                     ??_MyusartRead:	; 1 bytes @ 0x6
   734  000086                     ??_Lo_ISR:	; 1 bytes @ 0x6
   735  000086                     	ds   5
   736  000086                     ??_ClearBuffer:	; 1 bytes @ 0xB
   737  00008B                     ??_adc_init_2_1:	; 1 bytes @ 0xB
   738  00008B                     ??_ccp2_init:	; 1 bytes @ 0xB
   739  00008B                     ??_tmr_init:	; 1 bytes @ 0xB
   740  00008B                     ??_adc_init_2_2:	; 1 bytes @ 0xB
   741  00008B                     ??_UART_Write:	; 1 bytes @ 0xB
   742  00008B                     ??_INTERRUPT_Initialize:	; 1 bytes @ 0xB
   743  00008B                     ??_UART_Initialize:	; 1 bytes @ 0xB
   744  00008B                     ??_LED_Init:	; 1 bytes @ 0xB
   745  00008B                     	global	?_ADC_Read
   746                           ?_ADC_Read:	; 2 bytes @ 0xB
   747  00008B                     	global	?_strlen
   748                           ?_strlen:	; 2 bytes @ 0xB
   749  00008B                     	global	?_strncmp
   750                           ?_strncmp:	; 2 bytes @ 0xB
   751  00008B                     	global	?_strchr
   752                           ?_strchr:	; 2 bytes @ 0xB
   753  00008B                     	global	?___awdiv
   754                           ?___awdiv:	; 2 bytes @ 0xB
   755  00008B                     	global	?___xxtofl
   756                           ?___xxtofl:	; 4 bytes @ 0xB
   757  00008B                     	global	UART_Write@data
   758                           UART_Write@data:	; 1 bytes @ 0xB
   759  00008B                     	global	ClearBuffer@i
   760                           ClearBuffer@i:	; 2 bytes @ 0xB
   761  00008B                     	global	ADC_Read@channel
   762                           ADC_Read@channel:	; 2 bytes @ 0xB
   763  00008B                     	global	___awdiv@dividend
   764                           ___awdiv@dividend:	; 2 bytes @ 0xB
   765  00008B                     	global	strchr@s
   766                           strchr@s:	; 2 bytes @ 0xB
   767  00008B                     	global	strlen@s
   768                           strlen@s:	; 2 bytes @ 0xB
   769  00008B                     	global	strncmp@_l
   770                           strncmp@_l:	; 2 bytes @ 0xB
   771  00008B                     	global	___xxtofl@val
   772                           ___xxtofl@val:	; 4 bytes @ 0xB
   773  00008B                     	ds   2
   774  00008B                     ??_ADC_Read:	; 1 bytes @ 0xD
   775  00008D                     ??_strlen:	; 1 bytes @ 0xD
   776  00008D                     ??_Mode2_1:	; 1 bytes @ 0xD
   777  00008D                     	global	___awdiv@divisor
   778                           ___awdiv@divisor:	; 2 bytes @ 0xD
   779  00008D                     	global	strchr@c
   780                           strchr@c:	; 2 bytes @ 0xD
   781  00008D                     	global	strncmp@_r
   782                           strncmp@_r:	; 2 bytes @ 0xD
   783  00008D                     	ds   2
   784  00008D                     ??_strchr:	; 1 bytes @ 0xF
   785  00008F                     ??___awdiv:	; 1 bytes @ 0xF
   786  00008F                     ??___xxtofl:	; 1 bytes @ 0xF
   787  00008F                     	global	___awdiv@counter
   788                           ___awdiv@counter:	; 1 bytes @ 0xF
   789  00008F                     	global	ADC_Read@digital
   790                           ADC_Read@digital:	; 2 bytes @ 0xF
   791  00008F                     	global	strlen@a
   792                           strlen@a:	; 2 bytes @ 0xF
   793  00008F                     	global	strncmp@n
   794                           strncmp@n:	; 2 bytes @ 0xF
   795  00008F                     	ds   1
   796  00008F                     	global	___awdiv@sign
   797                           ___awdiv@sign:	; 1 bytes @ 0x10
   798  000090                     	ds   1
   799  000090                     ??_strncmp:	; 1 bytes @ 0x11
   800  000091                     	global	___awdiv@quotient
   801                           ___awdiv@quotient:	; 2 bytes @ 0x11
   802  000091                     	ds   2
   803  000091                     	global	?___wmul
   804                           ?___wmul:	; 2 bytes @ 0x13
   805  000093                     	global	___xxtofl@sign
   806                           ___xxtofl@sign:	; 1 bytes @ 0x13
   807  000093                     	global	___wmul@multiplier
   808                           ___wmul@multiplier:	; 2 bytes @ 0x13
   809  000093                     	ds   1
   810  000093                     	global	___xxtofl@exp
   811                           ___xxtofl@exp:	; 1 bytes @ 0x14
   812  000094                     	global	strncmp@l
   813                           strncmp@l:	; 2 bytes @ 0x14
   814  000094                     	ds   1
   815  000094                     	global	___wmul@multiplicand
   816                           ___wmul@multiplicand:	; 2 bytes @ 0x15
   817  000095                     	global	___xxtofl@arg
   818                           ___xxtofl@arg:	; 4 bytes @ 0x15
   819  000095                     	ds   1
   820  000095                     	global	strncmp@r
   821                           strncmp@r:	; 2 bytes @ 0x16
   822  000096                     	ds   1
   823  000096                     ??___wmul:	; 1 bytes @ 0x17
   824  000097                     	global	___wmul@product
   825                           ___wmul@product:	; 2 bytes @ 0x17
   826  000097                     	ds   1
   827  000097                     	global	?_strstr
   828                           ?_strstr:	; 2 bytes @ 0x18
   829  000098                     	global	strstr@h
   830                           strstr@h:	; 2 bytes @ 0x18
   831  000098                     	ds   1
   832  000098                     	global	?___flmul
   833                           ?___flmul:	; 4 bytes @ 0x19
   834  000099                     	global	___flmul@b
   835                           ___flmul@b:	; 4 bytes @ 0x19
   836  000099                     	ds   1
   837  000099                     	global	strstr@n
   838                           strstr@n:	; 2 bytes @ 0x1A
   839  00009A                     	ds   2
   840  00009A                     ??_strstr:	; 1 bytes @ 0x1C
   841  00009C                     	global	strstr@nl
   842                           strstr@nl:	; 2 bytes @ 0x1C
   843  00009C                     	ds   1
   844  00009C                     	global	___flmul@a
   845                           ___flmul@a:	; 4 bytes @ 0x1D
   846  00009D                     	ds   4
   847  00009D                     ??___flmul:	; 1 bytes @ 0x21
   848  0000A1                     	ds   4
   849  0000A1                     	global	___flmul@sign
   850                           ___flmul@sign:	; 1 bytes @ 0x25
   851  0000A5                     	ds   1
   852  0000A5                     	global	___flmul@grs
   853                           ___flmul@grs:	; 4 bytes @ 0x26
   854  0000A6                     	ds   4
   855  0000A6                     	global	___flmul@aexp
   856                           ___flmul@aexp:	; 1 bytes @ 0x2A
   857  0000AA                     	ds   1
   858  0000AA                     	global	___flmul@bexp
   859                           ___flmul@bexp:	; 1 bytes @ 0x2B
   860  0000AB                     	ds   1
   861  0000AB                     	global	___flmul@prod
   862                           ___flmul@prod:	; 4 bytes @ 0x2C
   863  0000AC                     	ds   4
   864  0000AC                     	global	___flmul@temp
   865                           ___flmul@temp:	; 2 bytes @ 0x30
   866  0000B0                     	ds   2
   867  0000B0                     	global	?___fltol
   868                           ?___fltol:	; 4 bytes @ 0x32
   869  0000B2                     	global	___fltol@f1
   870                           ___fltol@f1:	; 4 bytes @ 0x32
   871  0000B2                     	ds   4
   872  0000B2                     ??___fltol:	; 1 bytes @ 0x36
   873  0000B6                     	ds   4
   874  0000B6                     	global	___fltol@sign1
   875                           ___fltol@sign1:	; 1 bytes @ 0x3A
   876  0000BA                     	ds   1
   877  0000BA                     	global	___fltol@exp1
   878                           ___fltol@exp1:	; 1 bytes @ 0x3B
   879  0000BB                     	ds   1
   880  0000BB                     ?_PrintVoltage:	; 1 bytes @ 0x3C
   881  0000BC                     	global	PrintVoltage@digital
   882                           PrintVoltage@digital:	; 2 bytes @ 0x3C
   883  0000BC                     	ds   2
   884  0000BC                     ??_PrintVoltage:	; 1 bytes @ 0x3E
   885  0000BE                     	global	PrintVoltage@voltage
   886                           PrintVoltage@voltage:	; 4 bytes @ 0x3E
   887  0000BE                     	ds   4
   888  0000BE                     	global	PrintVoltage@c
   889                           PrintVoltage@c:	; 1 bytes @ 0x42
   890  0000C2                     	ds   1
   891  0000C2                     	global	PrintVoltage@temp
   892                           PrintVoltage@temp:	; 2 bytes @ 0x43
   893  0000C3                     	ds   2
   894  0000C3                     ??_Mode3:	; 1 bytes @ 0x45
   895  0000C5                     	global	Mode3@digital
   896                           Mode3@digital:	; 2 bytes @ 0x45
   897  0000C5                     	ds   2
   898  0000C5                     ??_main:	; 1 bytes @ 0x47
   899  0000C7                     psect	cstackCOMRAM,class=COMRAM,space=1,noexec
   900                           global __pcstackCOMRAM
   901                           __pcstackCOMRAM:
   902  000001                     ?_ClearBuffer:	; 1 bytes @ 0x0
   903  000001                     ?_adc_init_2_1:	; 1 bytes @ 0x0
   904  000001                     ?_ccp2_init:	; 1 bytes @ 0x0
   905  000001                     ?_tmr_init:	; 1 bytes @ 0x0
   906  000001                     ?_adc_init_2_2:	; 1 bytes @ 0x0
   907  000001                     ?_UART_Write:	; 1 bytes @ 0x0
   908  000001                     ?_INTERRUPT_Initialize:	; 1 bytes @ 0x0
   909  000001                     ?_UART_Initialize:	; 1 bytes @ 0x0
   910  000001                     ?_LED_Init:	; 1 bytes @ 0x0
   911  000001                     ?_Mode2_1:	; 1 bytes @ 0x0
   912  000001                     ?_Mode3:	; 1 bytes @ 0x0
   913  000001                     ?_main:	; 1 bytes @ 0x0
   914  000001                     ?_Hi_ISR:	; 1 bytes @ 0x0
   915  000001                     ?_MyusartRead:	; 1 bytes @ 0x0
   916  000001                     ?_Lo_ISR:	; 1 bytes @ 0x0
   917  000001                     ?i1_UART_Write:	; 1 bytes @ 0x0
   918  000001                     ?i2_UART_Write:	; 1 bytes @ 0x0
   919  000001                     ??i2_UART_Write:	; 1 bytes @ 0x0
   920  000001                     	global	?i2___awdiv
   921                           ?i2___awdiv:	; 2 bytes @ 0x0
   922  000001                     	global	?i2_strchr
   923                           ?i2_strchr:	; 2 bytes @ 0x0
   924  000001                     	global	?i2_strlen
   925                           ?i2_strlen:	; 2 bytes @ 0x0
   926  000001                     	global	?i2_strncmp
   927                           ?i2_strncmp:	; 2 bytes @ 0x0
   928  000001                     	global	?i2___xxtofl
   929                           ?i2___xxtofl:	; 4 bytes @ 0x0
   930  000001                     	global	i2UART_Write@data
   931                           i2UART_Write@data:	; 1 bytes @ 0x0
   932  000001                     	global	i2___awdiv@dividend
   933                           i2___awdiv@dividend:	; 2 bytes @ 0x0
   934  000001                     	global	i2strchr@s
   935                           i2strchr@s:	; 2 bytes @ 0x0
   936  000001                     	global	i2strlen@s
   937                           i2strlen@s:	; 2 bytes @ 0x0
   938  000001                     	global	i2strncmp@_l
   939                           i2strncmp@_l:	; 2 bytes @ 0x0
   940  000001                     	global	i2___xxtofl@val
   941                           i2___xxtofl@val:	; 4 bytes @ 0x0
   942  000001                     	ds   2
   943  000001                     ??i2_strlen:	; 1 bytes @ 0x2
   944  000003                     	global	i2___awdiv@divisor
   945                           i2___awdiv@divisor:	; 2 bytes @ 0x2
   946  000003                     	global	i2strchr@c
   947                           i2strchr@c:	; 2 bytes @ 0x2
   948  000003                     	global	i2strncmp@_r
   949                           i2strncmp@_r:	; 2 bytes @ 0x2
   950  000003                     	ds   2
   951  000003                     ??i2___awdiv:	; 1 bytes @ 0x4
   952  000005                     ??i2___xxtofl:	; 1 bytes @ 0x4
   953  000005                     ??i2_strchr:	; 1 bytes @ 0x4
   954  000005                     	global	i2___awdiv@counter
   955                           i2___awdiv@counter:	; 1 bytes @ 0x4
   956  000005                     	global	i2strlen@a
   957                           i2strlen@a:	; 2 bytes @ 0x4
   958  000005                     	global	i2strncmp@n
   959                           i2strncmp@n:	; 2 bytes @ 0x4
   960  000005                     	ds   1
   961  000005                     	global	i2___awdiv@sign
   962                           i2___awdiv@sign:	; 1 bytes @ 0x5
   963  000006                     	ds   1
   964  000006                     ??i2_strncmp:	; 1 bytes @ 0x6
   965  000007                     	global	i2___awdiv@quotient
   966                           i2___awdiv@quotient:	; 2 bytes @ 0x6
   967  000007                     	ds   2
   968  000007                     	global	?i2___wmul
   969                           ?i2___wmul:	; 2 bytes @ 0x8
   970  000009                     	global	i2___xxtofl@sign
   971                           i2___xxtofl@sign:	; 1 bytes @ 0x8
   972  000009                     	global	i2___wmul@multiplier
   973                           i2___wmul@multiplier:	; 2 bytes @ 0x8
   974  000009                     	ds   1
   975  000009                     	global	i2___xxtofl@exp
   976                           i2___xxtofl@exp:	; 1 bytes @ 0x9
   977  00000A                     	global	i2strncmp@l
   978                           i2strncmp@l:	; 2 bytes @ 0x9
   979  00000A                     	ds   1
   980  00000A                     	global	i2___wmul@multiplicand
   981                           i2___wmul@multiplicand:	; 2 bytes @ 0xA
   982  00000B                     	global	i2___xxtofl@arg
   983                           i2___xxtofl@arg:	; 4 bytes @ 0xA
   984  00000B                     	ds   1
   985  00000B                     	global	i2strncmp@r
   986                           i2strncmp@r:	; 2 bytes @ 0xB
   987  00000C                     	ds   1
   988  00000C                     ??i2___wmul:	; 1 bytes @ 0xC
   989  00000D                     	global	i2___wmul@product
   990                           i2___wmul@product:	; 2 bytes @ 0xC
   991  00000D                     	ds   1
   992  00000D                     	global	?i2_strstr
   993                           ?i2_strstr:	; 2 bytes @ 0xD
   994  00000E                     	global	i2strstr@h
   995                           i2strstr@h:	; 2 bytes @ 0xD
   996  00000E                     	ds   1
   997  00000E                     	global	?i2___flmul
   998                           ?i2___flmul:	; 4 bytes @ 0xE
   999  00000F                     	global	i2___flmul@b
  1000                           i2___flmul@b:	; 4 bytes @ 0xE
  1001  00000F                     	ds   1
  1002  00000F                     	global	i2strstr@n
  1003                           i2strstr@n:	; 2 bytes @ 0xF
  1004  000010                     	ds   2
  1005  000010                     ??i2_strstr:	; 1 bytes @ 0x11
  1006  000012                     	global	i2strstr@nl
  1007                           i2strstr@nl:	; 2 bytes @ 0x11
  1008  000012                     	ds   1
  1009  000012                     	global	i2___flmul@a
  1010                           i2___flmul@a:	; 4 bytes @ 0x12
  1011  000013                     	ds   4
  1012  000013                     ??i2___flmul:	; 1 bytes @ 0x16
  1013  000017                     	ds   4
  1014  000017                     	global	i2___flmul@sign
  1015                           i2___flmul@sign:	; 1 bytes @ 0x1A
  1016  00001B                     	ds   1
  1017  00001B                     	global	i2___flmul@grs
  1018                           i2___flmul@grs:	; 4 bytes @ 0x1B
  1019  00001C                     	ds   4
  1020  00001C                     	global	i2___flmul@aexp
  1021                           i2___flmul@aexp:	; 1 bytes @ 0x1F
  1022  000020                     	ds   1
  1023  000020                     	global	i2___flmul@bexp
  1024                           i2___flmul@bexp:	; 1 bytes @ 0x20
  1025  000021                     	ds   1
  1026  000021                     	global	i2___flmul@prod
  1027                           i2___flmul@prod:	; 4 bytes @ 0x21
  1028  000022                     	ds   4
  1029  000022                     	global	i2___flmul@temp
  1030                           i2___flmul@temp:	; 2 bytes @ 0x25
  1031  000026                     	ds   2
  1032  000026                     	global	?i2___fltol
  1033                           ?i2___fltol:	; 4 bytes @ 0x27
  1034  000028                     	global	i2___fltol@f1
  1035                           i2___fltol@f1:	; 4 bytes @ 0x27
  1036  000028                     	ds   4
  1037  000028                     ??i2___fltol:	; 1 bytes @ 0x2B
  1038  00002C                     	ds   4
  1039  00002C                     	global	i2___fltol@sign1
  1040                           i2___fltol@sign1:	; 1 bytes @ 0x2F
  1041  000030                     	ds   1
  1042  000030                     	global	i2___fltol@exp1
  1043                           i2___fltol@exp1:	; 1 bytes @ 0x30
  1044  000031                     	ds   1
  1045  000031                     ?i2_PrintVoltage:	; 1 bytes @ 0x31
  1046  000032                     	global	i2PrintVoltage@digital
  1047                           i2PrintVoltage@digital:	; 2 bytes @ 0x31
  1048  000032                     	ds   2
  1049  000032                     ??i2_PrintVoltage:	; 1 bytes @ 0x33
  1050  000034                     	global	i2PrintVoltage@voltage
  1051                           i2PrintVoltage@voltage:	; 4 bytes @ 0x33
  1052  000034                     	ds   4
  1053  000034                     	global	i2PrintVoltage@c
  1054                           i2PrintVoltage@c:	; 1 bytes @ 0x37
  1055  000038                     	ds   1
  1056  000038                     	global	i2PrintVoltage@temp
  1057                           i2PrintVoltage@temp:	; 2 bytes @ 0x38
  1058  000039                     	ds   2
  1059  000039                     ??_Hi_ISR:	; 1 bytes @ 0x3A
  1060  00003B                     	ds   8
  1061  00003B                     	global	_Hi_ISR$1820
  1062                           _Hi_ISR$1820:	; 2 bytes @ 0x42
  1063  000043                     	ds   2
  1064  000043                     ;!
  1065                           ;!Data Sizes:
  1066                           ;!    Strings     33
  1067                           ;!    Constant    0
  1068                           ;!    Data        0
  1069                           ;!    BSS         28
  1070                           ;!    Persistent  0
  1071                           ;!    Stack       0
  1072                           ;!
  1073                           ;!Auto Spaces:
  1074                           ;!    Space          Size  Autos    Used
  1075                           ;!    COMRAM          126     68      82
  1076                           ;!    BANK0           128     71      85
  1077                           ;!    BANK1           256      0       0
  1078                           ;!    BANK2           256      0       0
  1079                           ;!    BANK3           256      0       0
  1080                           ;!    BANK4           256      0       0
  1081                           ;!    BANK5           256      0       0
  1082                           
  1083                           ;!
  1084                           ;!Pointer List with Targets:
  1085                           ;!
  1086                           ;!    strncmp@_r	PTR const unsigned char  size(2) Largest target is 6
  1087                           ;!		 -> STR_6(CODE[2]), STR_5(CODE[5]), STR_4(CODE[6]), STR_3(CODE[6]), 
  1088                           ;!		 -> STR_2(CODE[2]), 
  1089                           ;!
  1090                           ;!    strncmp@r	PTR const unsigned char  size(2) Largest target is 6
  1091                           ;!		 -> STR_6(CODE[2]), STR_5(CODE[5]), STR_4(CODE[6]), STR_3(CODE[6]), 
  1092                           ;!		 -> STR_2(CODE[2]), 
  1093                           ;!
  1094                           ;!    strncmp@_l	PTR const unsigned char  size(2) Largest target is 10
  1095                           ;!		 -> NULL(NULL[0]), mystring(BANK0[10]), 
  1096                           ;!
  1097                           ;!    strncmp@l	PTR const unsigned char  size(2) Largest target is 10
  1098                           ;!		 -> NULL(NULL[0]), mystring(BANK0[10]), 
  1099                           ;!
  1100                           ;!    strlen@s	PTR const unsigned char  size(2) Largest target is 6
  1101                           ;!		 -> STR_6(CODE[2]), STR_5(CODE[5]), STR_4(CODE[6]), STR_3(CODE[6]), 
  1102                           ;!		 -> STR_2(CODE[2]), 
  1103                           ;!
  1104                           ;!    strlen@a	PTR const unsigned char  size(2) Largest target is 6
  1105                           ;!		 -> STR_6(CODE[2]), STR_5(CODE[5]), STR_4(CODE[6]), STR_3(CODE[6]), 
  1106                           ;!		 -> STR_2(CODE[2]), 
  1107                           ;!
  1108                           ;!    strchr@s	PTR const unsigned char  size(2) Largest target is 10
  1109                           ;!		 -> NULL(NULL[0]), mystring(BANK0[10]), 
  1110                           ;!
  1111                           ;!    sp__strchr	PTR unsigned char  size(2) Largest target is 10
  1112                           ;!		 -> NULL(NULL[0]), mystring(BANK0[10]), 
  1113                           ;!
  1114                           ;!    strstr@h	PTR const unsigned char  size(2) Largest target is 10
  1115                           ;!		 -> NULL(NULL[0]), mystring(BANK0[10]), 
  1116                           ;!
  1117                           ;!    strstr@n	PTR const unsigned char  size(2) Largest target is 6
  1118                           ;!		 -> STR_6(CODE[2]), STR_5(CODE[5]), STR_4(CODE[6]), STR_3(CODE[6]), 
  1119                           ;!		 -> STR_2(CODE[2]), 
  1120                           ;!
  1121                           ;!    sp__strstr	PTR unsigned char  size(2) Largest target is 10
  1122                           ;!		 -> NULL(NULL[0]), mystring(BANK0[10]), 
  1123                           ;!
  1124                           
  1125                           
  1126                           ;!
  1127                           ;!Critical Paths under _main in COMRAM
  1128                           ;!
  1129                           ;!    None.
  1130                           ;!
  1131                           ;!Critical Paths under _Lo_ISR in COMRAM
  1132                           ;!
  1133                           ;!    None.
  1134                           ;!
  1135                           ;!Critical Paths under _Hi_ISR in COMRAM
  1136                           ;!
  1137                           ;!    _Hi_ISR->i2_PrintVoltage
  1138                           ;!    i2_strstr->i2_strncmp
  1139                           ;!    i2_PrintVoltage->i2___fltol
  1140                           ;!    i2___wmul->i2___awdiv
  1141                           ;!    i2___fltol->i2___flmul
  1142                           ;!    i2___flmul->i2___xxtofl
  1143                           ;!
  1144                           ;!Critical Paths under _main in BANK0
  1145                           ;!
  1146                           ;!    _main->_Mode3
  1147                           ;!    _strstr->_strncmp
  1148                           ;!    _Mode3->_PrintVoltage
  1149                           ;!    _PrintVoltage->___fltol
  1150                           ;!    ___wmul->___awdiv
  1151                           ;!    ___fltol->___flmul
  1152                           ;!    ___flmul->___xxtofl
  1153                           ;!    _Mode2_1->_ClearBuffer
  1154                           ;!
  1155                           ;!Critical Paths under _Lo_ISR in BANK0
  1156                           ;!
  1157                           ;!    _MyusartRead->___awmod
  1158                           ;!
  1159                           ;!Critical Paths under _Hi_ISR in BANK0
  1160                           ;!
  1161                           ;!    None.
  1162                           ;!
  1163                           ;!Critical Paths under _main in BANK1
  1164                           ;!
  1165                           ;!    None.
  1166                           ;!
  1167                           ;!Critical Paths under _Lo_ISR in BANK1
  1168                           ;!
  1169                           ;!    None.
  1170                           ;!
  1171                           ;!Critical Paths under _Hi_ISR in BANK1
  1172                           ;!
  1173                           ;!    None.
  1174                           ;!
  1175                           ;!Critical Paths under _main in BANK2
  1176                           ;!
  1177                           ;!    None.
  1178                           ;!
  1179                           ;!Critical Paths under _Lo_ISR in BANK2
  1180                           ;!
  1181                           ;!    None.
  1182                           ;!
  1183                           ;!Critical Paths under _Hi_ISR in BANK2
  1184                           ;!
  1185                           ;!    None.
  1186                           ;!
  1187                           ;!Critical Paths under _main in BANK3
  1188                           ;!
  1189                           ;!    None.
  1190                           ;!
  1191                           ;!Critical Paths under _Lo_ISR in BANK3
  1192                           ;!
  1193                           ;!    None.
  1194                           ;!
  1195                           ;!Critical Paths under _Hi_ISR in BANK3
  1196                           ;!
  1197                           ;!    None.
  1198                           ;!
  1199                           ;!Critical Paths under _main in BANK4
  1200                           ;!
  1201                           ;!    None.
  1202                           ;!
  1203                           ;!Critical Paths under _Lo_ISR in BANK4
  1204                           ;!
  1205                           ;!    None.
  1206                           ;!
  1207                           ;!Critical Paths under _Hi_ISR in BANK4
  1208                           ;!
  1209                           ;!    None.
  1210                           ;!
  1211                           ;!Critical Paths under _main in BANK5
  1212                           ;!
  1213                           ;!    None.
  1214                           ;!
  1215                           ;!Critical Paths under _Lo_ISR in BANK5
  1216                           ;!
  1217                           ;!    None.
  1218                           ;!
  1219                           ;!Critical Paths under _Hi_ISR in BANK5
  1220                           ;!
  1221                           ;!    None.
  1222                           
  1223 ;;
  1224 ;;Main: autosize = 0, tempsize = 0, incstack = 0, save=0
  1225 ;;
  1226                           
  1227                           ;!
  1228                           ;!Call Graph Tables:
  1229                           ;!
  1230                           ;! ---------------------------------------------------------------------------------
  1231                           ;! (Depth) Function   	        Calls       Base Space   Used Autos Params    Refs
  1232                           ;! ---------------------------------------------------------------------------------
  1233                           ;! (0) _main                                                 0     0      0    7718
  1234                           ;!                        _ClearBuffer
  1235                           ;!               _INTERRUPT_Initialize
  1236                           ;!                           _LED_Init
  1237                           ;!                            _Mode2_1
  1238                           ;!                              _Mode3
  1239                           ;!                    _UART_Initialize
  1240                           ;!                             _strstr
  1241                           ;! ---------------------------------------------------------------------------------
  1242                           ;! (1) _strstr                                               6     2      4    1789
  1243                           ;!                                             24 BANK0      6     2      4
  1244                           ;!                             _strchr
  1245                           ;!                             _strlen
  1246                           ;!                            _strncmp
  1247                           ;! ---------------------------------------------------------------------------------
  1248                           ;! (2) _strncmp                                             13     7      6     453
  1249                           ;!                                             11 BANK0     13     7      6
  1250                           ;! ---------------------------------------------------------------------------------
  1251                           ;! (2) _strlen                                               6     4      2     166
  1252                           ;!                                             11 BANK0      6     4      2
  1253                           ;! ---------------------------------------------------------------------------------
  1254                           ;! (2) _strchr                                               5     1      4     240
  1255                           ;!                                             11 BANK0      5     1      4
  1256                           ;! ---------------------------------------------------------------------------------
  1257                           ;! (1) _UART_Initialize                                      0     0      0       0
  1258                           ;! ---------------------------------------------------------------------------------
  1259                           ;! (1) _Mode3                                                2     2      0    5793
  1260                           ;!                                             69 BANK0      2     2      0
  1261                           ;!                           _ADC_Read
  1262                           ;!                        _ClearBuffer
  1263                           ;!                       _PrintVoltage
  1264                           ;!                         _UART_Write
  1265                           ;!                       _adc_init_2_2
  1266                           ;! ---------------------------------------------------------------------------------
  1267                           ;! (2) _adc_init_2_2                                         0     0      0       0
  1268                           ;! ---------------------------------------------------------------------------------
  1269                           ;! (2) _PrintVoltage                                         9     7      2    5483
  1270                           ;!                                             60 BANK0      9     7      2
  1271                           ;!                         _UART_Write
  1272                           ;!                            ___awdiv
  1273                           ;!                            ___flmul
  1274                           ;!                            ___fltol
  1275                           ;!                             ___wmul
  1276                           ;!                           ___xxtofl
  1277                           ;! ---------------------------------------------------------------------------------
  1278                           ;! (3) ___xxtofl                                            14    10      4     398
  1279                           ;!                                             11 BANK0     14    10      4
  1280                           ;! ---------------------------------------------------------------------------------
  1281                           ;! (3) ___wmul                                               6     2      4     615
  1282                           ;!                                             19 BANK0      6     2      4
  1283                           ;!                            ___awdiv (ARG)
  1284                           ;! ---------------------------------------------------------------------------------
  1285                           ;! (3) ___fltol                                             10     6      4     305
  1286                           ;!                                             50 BANK0     10     6      4
  1287                           ;!                            ___flmul (ARG)
  1288                           ;! ---------------------------------------------------------------------------------
  1289                           ;! (3) ___flmul                                             25    17      8    1896
  1290                           ;!                                             25 BANK0     25    17      8
  1291                           ;!                           ___xxtofl (ARG)
  1292                           ;! ---------------------------------------------------------------------------------
  1293                           ;! (3) ___awdiv                                              8     4      4    1616
  1294                           ;!                                             11 BANK0      8     4      4
  1295                           ;! ---------------------------------------------------------------------------------
  1296                           ;! (2) _UART_Write                                           1     1      0      22
  1297                           ;!                                             11 BANK0      1     1      0
  1298                           ;! ---------------------------------------------------------------------------------
  1299                           ;! (2) _ADC_Read                                             6     4      2     197
  1300                           ;!                                             11 BANK0      6     4      2
  1301                           ;! ---------------------------------------------------------------------------------
  1302                           ;! (1) _Mode2_1                                              0     0      0      68
  1303                           ;!                        _ClearBuffer
  1304                           ;!                       _adc_init_2_1
  1305                           ;!                          _ccp2_init
  1306                           ;!                           _tmr_init
  1307                           ;! ---------------------------------------------------------------------------------
  1308                           ;! (2) _tmr_init                                             0     0      0       0
  1309                           ;! ---------------------------------------------------------------------------------
  1310                           ;! (2) _ccp2_init                                            0     0      0       0
  1311                           ;! ---------------------------------------------------------------------------------
  1312                           ;! (2) _adc_init_2_1                                         0     0      0       0
  1313                           ;! ---------------------------------------------------------------------------------
  1314                           ;! (2) _ClearBuffer                                          2     2      0      68
  1315                           ;!                                             11 BANK0      2     2      0
  1316                           ;! ---------------------------------------------------------------------------------
  1317                           ;! (1) _LED_Init                                             0     0      0       0
  1318                           ;! ---------------------------------------------------------------------------------
  1319                           ;! (1) _INTERRUPT_Initialize                                 0     0      0       0
  1320                           ;! ---------------------------------------------------------------------------------
  1321                           ;! Estimated maximum stack depth 3
  1322                           ;! ---------------------------------------------------------------------------------
  1323                           ;! (Depth) Function   	        Calls       Base Space   Used Autos Params    Refs
  1324                           ;! ---------------------------------------------------------------------------------
  1325                           ;! (4) _Lo_ISR                                               5     5      0     470
  1326                           ;!                                              6 BANK0      5     5      0
  1327                           ;!                        _MyusartRead
  1328                           ;! ---------------------------------------------------------------------------------
  1329                           ;! (5) _MyusartRead                                          0     0      0     470
  1330                           ;!                            ___awmod
  1331                           ;!                       i1_UART_Write
  1332                           ;! ---------------------------------------------------------------------------------
  1333                           ;! (6) i1_UART_Write                                         1     1      0      22
  1334                           ;!                                              0 BANK0      1     1      0
  1335                           ;! ---------------------------------------------------------------------------------
  1336                           ;! (6) ___awmod                                              6     2      4     448
  1337                           ;!                                              0 BANK0      6     2      4
  1338                           ;! ---------------------------------------------------------------------------------
  1339                           ;! Estimated maximum stack depth 6
  1340                           ;! ---------------------------------------------------------------------------------
  1341                           ;! (Depth) Function   	        Calls       Base Space   Used Autos Params    Refs
  1342                           ;! ---------------------------------------------------------------------------------
  1343                           ;! (7) _Hi_ISR                                              10    10      0    5357
  1344                           ;!                                             58 COMRAM    10    10      0
  1345                           ;!                     i2_PrintVoltage
  1346                           ;!                          i2___awdiv
  1347                           ;!                           i2_strstr
  1348                           ;! ---------------------------------------------------------------------------------
  1349                           ;! (8) i2_strstr                                             6     2      4     833
  1350                           ;!                                             13 COMRAM     6     2      4
  1351                           ;!                           i2_strchr
  1352                           ;!                           i2_strlen
  1353                           ;!                          i2_strncmp
  1354                           ;! ---------------------------------------------------------------------------------
  1355                           ;! (9) i2_strncmp                                           13     7      6     303
  1356                           ;!                                              0 COMRAM    13     7      6
  1357                           ;! ---------------------------------------------------------------------------------
  1358                           ;! (9) i2_strlen                                             6     4      2     116
  1359                           ;!                                              0 COMRAM     6     4      2
  1360                           ;! ---------------------------------------------------------------------------------
  1361                           ;! (9) i2_strchr                                             5     1      4     140
  1362                           ;!                                              0 COMRAM     5     1      4
  1363                           ;! ---------------------------------------------------------------------------------
  1364                           ;! (8) i2_PrintVoltage                                       9     7      2    3733
  1365                           ;!                                             49 COMRAM     9     7      2
  1366                           ;!                       i2_UART_Write
  1367                           ;!                          i2___awdiv
  1368                           ;!                          i2___flmul
  1369                           ;!                          i2___fltol
  1370                           ;!                           i2___wmul
  1371                           ;!                         i2___xxtofl
  1372                           ;! ---------------------------------------------------------------------------------
  1373                           ;! (9) i2___xxtofl                                          14    10      4     348
  1374                           ;!                                              0 COMRAM    14    10      4
  1375                           ;! ---------------------------------------------------------------------------------
  1376                           ;! (9) i2___wmul                                             6     2      4     315
  1377                           ;!                                              8 COMRAM     6     2      4
  1378                           ;!                          i2___awdiv (ARG)
  1379                           ;! ---------------------------------------------------------------------------------
  1380                           ;! (9) i2___fltol                                           10     6      4     255
  1381                           ;!                                             39 COMRAM    10     6      4
  1382                           ;!                          i2___flmul (ARG)
  1383                           ;! ---------------------------------------------------------------------------------
  1384                           ;! (9) i2___flmul                                           25    17      8    1570
  1385                           ;!                                             14 COMRAM    25    17      8
  1386                           ;!                         i2___xxtofl (ARG)
  1387                           ;! ---------------------------------------------------------------------------------
  1388                           ;! (8) i2___awdiv                                            8     4      4     768
  1389                           ;!                                              0 COMRAM     8     4      4
  1390                           ;! ---------------------------------------------------------------------------------
  1391                           ;! (9) i2_UART_Write                                         1     1      0      22
  1392                           ;!                                              0 COMRAM     1     1      0
  1393                           ;! ---------------------------------------------------------------------------------
  1394                           ;! Estimated maximum stack depth 9
  1395                           ;! ---------------------------------------------------------------------------------
  1396                           ;!
  1397                           ;! Call Graph Graphs:
  1398                           ;!
  1399                           ;! _main (ROOT)
  1400                           ;!   _ClearBuffer
  1401                           ;!   _INTERRUPT_Initialize
  1402                           ;!   _LED_Init
  1403                           ;!   _Mode2_1
  1404                           ;!     _ClearBuffer
  1405                           ;!     _adc_init_2_1
  1406                           ;!     _ccp2_init
  1407                           ;!     _tmr_init
  1408                           ;!   _Mode3
  1409                           ;!     _ADC_Read
  1410                           ;!     _ClearBuffer
  1411                           ;!     _PrintVoltage
  1412                           ;!       _UART_Write
  1413                           ;!       ___awdiv
  1414                           ;!       ___flmul
  1415                           ;!         ___xxtofl (ARG)
  1416                           ;!       ___fltol
  1417                           ;!         ___flmul (ARG)
  1418                           ;!           ___xxtofl (ARG)
  1419                           ;!       ___wmul
  1420                           ;!         ___awdiv (ARG)
  1421                           ;!       ___xxtofl
  1422                           ;!     _UART_Write
  1423                           ;!     _adc_init_2_2
  1424                           ;!   _UART_Initialize
  1425                           ;!   _strstr
  1426                           ;!     _strchr
  1427                           ;!     _strlen
  1428                           ;!     _strncmp
  1429                           ;!
  1430                           ;! _Lo_ISR (ROOT)
  1431                           ;!   _MyusartRead
  1432                           ;!     ___awmod
  1433                           ;!     i1_UART_Write
  1434                           ;!
  1435                           ;! _Hi_ISR (ROOT)
  1436                           ;!   i2_PrintVoltage
  1437                           ;!     i2_UART_Write
  1438                           ;!     i2___awdiv
  1439                           ;!     i2___flmul
  1440                           ;!       i2___xxtofl (ARG)
  1441                           ;!     i2___fltol
  1442                           ;!       i2___flmul (ARG)
  1443                           ;!         i2___xxtofl (ARG)
  1444                           ;!     i2___wmul
  1445                           ;!       i2___awdiv (ARG)
  1446                           ;!     i2___xxtofl
  1447                           ;!   i2___awdiv
  1448                           ;!   i2_strstr
  1449                           ;!     i2_strchr
  1450                           ;!     i2_strlen
  1451                           ;!     i2_strncmp
  1452                           ;!
  1453                           
  1454                           ;! Address spaces:
  1455                           
  1456                           ;!Name               Size   Autos  Total    Cost      Usage
  1457                           ;!BIGRAM             5FF      0       0      17        0.0%
  1458                           ;!EEDATA             100      0       0       0        0.0%
  1459                           ;!BITBANK5           100      0       0      16        0.0%
  1460                           ;!BANK5              100      0       0      14        0.0%
  1461                           ;!BITBANK4           100      0       0      12        0.0%
  1462                           ;!BANK4              100      0       0      13        0.0%
  1463                           ;!BITBANK3           100      0       0      10        0.0%
  1464                           ;!BANK3              100      0       0      11        0.0%
  1465                           ;!BITBANK2           100      0       0       8        0.0%
  1466                           ;!BANK2              100      0       0       9        0.0%
  1467                           ;!BITBANK1           100      0       0       6        0.0%
  1468                           ;!BANK1              100      0       0       7        0.0%
  1469                           ;!BITBANK0            80      0       0       4        0.0%
  1470                           ;!BANK0               80     47      55       5       66.4%
  1471                           ;!BITCOMRAM           7E      0       0       0        0.0%
  1472                           ;!COMRAM              7E     44      52       1       65.1%
  1473                           ;!BITSFR               0      0       0     200        0.0%
  1474                           ;!SFR                  0      0       0     200        0.0%
  1475                           ;!STACK                0      0       0       2        0.0%
  1476                           ;!NULL                 0      0       0       0        0.0%
  1477                           ;!ABS                  0      0      A7      15        0.0%
  1478                           ;!DATA                 0      0      A7       3        0.0%
  1479                           ;!CODE                 0      0       0       0        0.0%
  1480                           
  1481                           	global	_main
  1482                           
  1483 ;; *************** function _main *****************
  1484 ;; Defined at:
  1485 ;;		line 153 in file "Problem3.c"
  1486 ;; Parameters:    Size  Location     Type
  1487 ;;		None
  1488 ;; Auto vars:     Size  Location     Type
  1489 ;;		None
  1490 ;; Return value:  Size  Location     Type
  1491 ;;                  1    wreg      void 
  1492 ;; Registers used:
  1493 ;;		wreg, fsr2l, fsr2h, status,2, status,0, tblptrl, tblptrh, tblptru, prodl, prodh, cstack
  1494 ;; Tracked objects:
  1495 ;;		On entry : 0/0
  1496 ;;		On exit  : 0/0
  1497 ;;		Unchanged: 0/0
  1498 ;; Data sizes:     COMRAM   BANK0   BANK1   BANK2   BANK3   BANK4   BANK5
  1499 ;;      Params:         0       0       0       0       0       0       0
  1500 ;;      Locals:         0       0       0       0       0       0       0
  1501 ;;      Temps:          0       0       0       0       0       0       0
  1502 ;;      Totals:         0       0       0       0       0       0       0
  1503 ;;Total ram usage:        0 bytes
  1504 ;; Hardware stack levels required when called:    9
  1505 ;; This function calls:
  1506 ;;		_ClearBuffer
  1507 ;;		_INTERRUPT_Initialize
  1508 ;;		_LED_Init
  1509 ;;		_Mode2_1
  1510 ;;		_Mode3
  1511 ;;		_UART_Initialize
  1512 ;;		_strstr
  1513 ;; This function is called by:
  1514 ;;		Startup code after reset
  1515 ;; This function uses a non-reentrant model
  1516 ;;
  1517                           psect	text0,class=CODE,space=0,reloc=2,group=0
  1518                           	file	"Problem3.c"
  1519                           	line	153
  1520                           global __ptext0
  1521                           __ptext0:
  1522  0021AA                     psect	text0
  1523                           	file	"Problem3.c"
  1524                           	line	153
  1525                           	global	__size_of_main
  1526                           	__size_of_main	equ	__end_of_main-_main
  1527  0000                     	
  1528                           _main:
  1529  0021AA                     ;incstack = 0
  1530                           	opt	stack 22
  1531                           	line	156
  1532                           	
  1533                           l2998:
  1534  0021AA                     ;Problem3.c: 156:     INTERRUPT_Initialize();
  1535                           	call	_INTERRUPT_Initialize	;wreg free
  1536  0021AA  EC78  F013         	line	157
  1537                           	
  1538                           l3000:
  1539  0021AE                     ;Problem3.c: 157:     UART_Initialize();
  1540                           	call	_UART_Initialize	;wreg free
  1541  0021AE  EC24  F013         	line	158
  1542                           	
  1543                           l3002:
  1544  0021B2                     ;Problem3.c: 158:     ClearBuffer();
  1545                           	call	_ClearBuffer	;wreg free
  1546  0021B2  EC30  F011         	line	161
  1547                           	
  1548                           l3004:
  1549  0021B6                     ;Problem3.c: 161:     LED_Init();
  1550                           	call	_LED_Init	;wreg free
  1551  0021B6  EC67  F012         	goto	l3006
  1552  0021BA  EFDF  F010         	line	163
  1553                           ;Problem3.c: 163:     while(1) {
  1554                           	
  1555                           l154:
  1556  0021BE                     	line	169
  1557                           	
  1558                           l3006:
  1559  0021BE                     ;Problem3.c: 169:         if(strstr(mystring, "clear") != ((void*)0))
  1560                           		movlw	low(_mystring)
  1561  0021BE  0ECB               	movlb	0	; () banked
  1562  0021C0  0100               	movwf	((strstr@h))&0ffh
  1563  0021C2  6F98               	movlw	high(_mystring)
  1564  0021C4  0E00               	movwf	((strstr@h+1))&0ffh
  1565  0021C6  6F99               
  1566                           		movlw	low(STR_3)
  1567  0021C8  0E0F               	movwf	((strstr@n))&0ffh
  1568  0021CA  6F9A               	movlw	high(STR_3)
  1569  0021CC  0E06               	movwf	((strstr@n+1))&0ffh
  1570  0021CE  6F9B               
  1571                           	call	_strstr	;wreg free
  1572  0021D0  EC8D  F00F         	movlb	0	; () banked
  1573  0021D4  0100               	movf	(0+?_strstr)&0ffh,w
  1574  0021D6  5198               iorwf	(1+?_strstr)&0ffh,w
  1575  0021D8  1199               	btfsc	status,2
  1576  0021DA  B4D8               	goto	u2731
  1577  0021DC  EFF2  F010         	goto	u2730
  1578  0021E0  EFF4  F010         
  1579                           u2731:
  1580  0021E4                     	goto	l3010
  1581  0021E4  EFF8  F010         u2730:
  1582  0021E8                     	line	170
  1583                           	
  1584                           l3008:; BSR set to: 0
  1585  0021E8                     
  1586                           ;Problem3.c: 170:             ClearBuffer();
  1587                           	call	_ClearBuffer	;wreg free
  1588  0021E8  EC30  F011         	goto	l3010
  1589  0021EC  EFF8  F010         	
  1590                           l155:
  1591  0021F0                     	line	171
  1592                           	
  1593                           l3010:
  1594  0021F0                     ;Problem3.c: 171:         if(strstr(mystring, "print") != ((void*)0))
  1595                           		movlw	low(_mystring)
  1596  0021F0  0ECB               	movlb	0	; () banked
  1597  0021F2  0100               	movwf	((strstr@h))&0ffh
  1598  0021F4  6F98               	movlw	high(_mystring)
  1599  0021F6  0E00               	movwf	((strstr@h+1))&0ffh
  1600  0021F8  6F99               
  1601                           		movlw	low(STR_4)
  1602  0021FA  0E15               	movwf	((strstr@n))&0ffh
  1603  0021FC  6F9A               	movlw	high(STR_4)
  1604  0021FE  0E06               	movwf	((strstr@n+1))&0ffh
  1605  002200  6F9B               
  1606                           	call	_strstr	;wreg free
  1607  002202  EC8D  F00F         	movlb	0	; () banked
  1608  002206  0100               	movf	(0+?_strstr)&0ffh,w
  1609  002208  5198               iorwf	(1+?_strstr)&0ffh,w
  1610  00220A  1199               	btfsc	status,2
  1611  00220C  B4D8               	goto	u2741
  1612  00220E  EF0B  F011         	goto	u2740
  1613  002212  EF0D  F011         
  1614                           u2741:
  1615  002216                     	goto	l3014
  1616  002216  EF11  F011         u2740:
  1617  00221A                     	line	172
  1618                           	
  1619                           l3012:; BSR set to: 0
  1620  00221A                     
  1621                           ;Problem3.c: 172:             Mode3();
  1622                           	call	_Mode3	;wreg free
  1623  00221A  ECB8  F012         	goto	l3014
  1624  00221E  EF11  F011         	
  1625                           l156:
  1626  002222                     	line	173
  1627                           	
  1628                           l3014:
  1629  002222                     ;Problem3.c: 173:         if(strstr(mystring, "auto") != ((void*)0))
  1630                           		movlw	low(_mystring)
  1631  002222  0ECB               	movlb	0	; () banked
  1632  002224  0100               	movwf	((strstr@h))&0ffh
  1633  002226  6F98               	movlw	high(_mystring)
  1634  002228  0E00               	movwf	((strstr@h+1))&0ffh
  1635  00222A  6F99               
  1636                           		movlw	low(STR_5)
  1637  00222C  0E1B               	movwf	((strstr@n))&0ffh
  1638  00222E  6F9A               	movlw	high(STR_5)
  1639  002230  0E06               	movwf	((strstr@n+1))&0ffh
  1640  002232  6F9B               
  1641                           	call	_strstr	;wreg free
  1642  002234  EC8D  F00F         	movlb	0	; () banked
  1643  002238  0100               	movf	(0+?_strstr)&0ffh,w
  1644  00223A  5198               iorwf	(1+?_strstr)&0ffh,w
  1645  00223C  1199               	btfsc	status,2
  1646  00223E  B4D8               	goto	u2751
  1647  002240  EF24  F011         	goto	u2750
  1648  002244  EF26  F011         
  1649                           u2751:
  1650  002248                     	goto	l3006
  1651  002248  EFDF  F010         u2750:
  1652  00224C                     	line	174
  1653                           	
  1654                           l3016:; BSR set to: 0
  1655  00224C                     
  1656                           ;Problem3.c: 174:             Mode2_1();
  1657                           	call	_Mode2_1	;wreg free
  1658  00224C  EC11  F013         	goto	l3006
  1659  002250  EFDF  F010         	
  1660                           l157:
  1661  002254                     	goto	l3006
  1662  002254  EFDF  F010         	line	184
  1663                           ;Problem3.c: 184:     }
  1664                           	
  1665                           l158:
  1666  002258                     	goto	l3006
  1667  002258  EFDF  F010         	
  1668                           l159:
  1669  00225C                     	line	187
  1670                           ;Problem3.c: 185:     return;
  1671                           	
  1672                           l160:
  1673  00225C                     	global	start
  1674                           	goto	start
  1675  00225C  EF92  F000         	opt stack 0
  1676                           GLOBAL	__end_of_main
  1677                           	__end_of_main:
  1678  002260                     	signat	_main,89
  1679                           	global	_strstr
  1680                           
  1681 ;; *************** function _strstr *****************
  1682 ;; Defined at:
  1683 ;;		line 143 in file "C:\Program Files (x86)\Microchip\xc8\v2.00\pic\sources\c99\common\strstr.c"
  1684 ;; Parameters:    Size  Location     Type
  1685 ;;  h               2   24[BANK0 ] PTR const unsigned char 
  1686 ;;		 -> NULL(0), mystring(10), 
  1687 ;;  n               2   26[BANK0 ] PTR const unsigned char 
  1688 ;;		 -> STR_6(2), STR_5(5), STR_4(6), STR_3(6), 
  1689 ;;		 -> STR_2(2), 
  1690 ;; Auto vars:     Size  Location     Type
  1691 ;;  nl              2   28[BANK0 ] unsigned int 
  1692 ;; Return value:  Size  Location     Type
  1693 ;;                  2   24[BANK0 ] PTR unsigned char 
  1694 ;; Registers used:
  1695 ;;		wreg, fsr2l, fsr2h, status,2, status,0, tblptrl, tblptrh, tblptru, cstack
  1696 ;; Tracked objects:
  1697 ;;		On entry : 0/0
  1698 ;;		On exit  : 0/0
  1699 ;;		Unchanged: 0/0
  1700 ;; Data sizes:     COMRAM   BANK0   BANK1   BANK2   BANK3   BANK4   BANK5
  1701 ;;      Params:         0       4       0       0       0       0       0
  1702 ;;      Locals:         0       2       0       0       0       0       0
  1703 ;;      Temps:          0       0       0       0       0       0       0
  1704 ;;      Totals:         0       6       0       0       0       0       0
  1705 ;;Total ram usage:        6 bytes
  1706 ;; Hardware stack levels used:    1
  1707 ;; Hardware stack levels required when called:    7
  1708 ;; This function calls:
  1709 ;;		_strchr
  1710 ;;		_strlen
  1711 ;;		_strncmp
  1712 ;; This function is called by:
  1713 ;;		_main
  1714 ;;		_Mode2_2
  1715 ;; This function uses a non-reentrant model
  1716 ;;
  1717                           psect	text1,class=CODE,space=0,reloc=2,group=2
  1718                           	file	"C:\Program Files (x86)\Microchip\xc8\v2.00\pic\sources\c99\common\strstr.c"
  1719                           	line	143
  1720                           global __ptext1
  1721                           __ptext1:
  1722  001F1A                     psect	text1
  1723                           	file	"C:\Program Files (x86)\Microchip\xc8\v2.00\pic\sources\c99\common\strstr.c"
  1724                           	line	143
  1725                           	global	__size_of_strstr
  1726                           	__size_of_strstr	equ	__end_of_strstr-_strstr
  1727  0000                     	
  1728                           _strstr:
  1729  001F1A                     ;incstack = 0
  1730                           	opt	stack 23
  1731                           	line	146
  1732                           	
  1733                           l2806:
  1734  001F1A                     	movlb	0	; () banked
  1735  001F1A  0100               	movf	((strstr@n))&0ffh,w
  1736  001F1C  519A               iorwf	((strstr@n+1))&0ffh,w
  1737  001F1E  119B               	btfsc	status,2
  1738  001F20  B4D8               	goto	u2591
  1739  001F22  EF95  F00F         	goto	u2590
  1740  001F26  EF97  F00F         
  1741                           u2591:
  1742  001F2A                     	goto	l2822
  1743  001F2A  EFF5  F00F         u2590:
  1744  001F2E                     	line	147
  1745                           	
  1746                           l2808:; BSR set to: 0
  1747  001F2E                     
  1748                           		movff	(strstr@n),(strlen@s)
  1749  001F2E  C09A  F08B         	movff	(strstr@n+1),(strlen@s+1)
  1750  001F32  C09B  F08C         
  1751                           	call	_strlen	;wreg free
  1752  001F36  EC66  F011         	movff	0+?_strlen,(strstr@nl)
  1753  001F3A  C08B  F09C         	movff	1+?_strlen,(strstr@nl+1)
  1754  001F3E  C08C  F09D         	line	148
  1755                           	goto	l2818
  1756  001F42  EFD9  F00F         	
  1757                           l922:
  1758  001F46                     	line	149
  1759                           	
  1760                           l2810:
  1761  001F46                     		movff	(strstr@h),(strncmp@_l)
  1762  001F46  C098  F08B         	movff	(strstr@h+1),(strncmp@_l+1)
  1763  001F4A  C099  F08C         
  1764                           		movff	(strstr@n),(strncmp@_r)
  1765  001F4E  C09A  F08D         	movff	(strstr@n+1),(strncmp@_r+1)
  1766  001F52  C09B  F08E         
  1767                           	movff	(strstr@nl),(strncmp@n)
  1768  001F56  C09C  F08F         	movff	(strstr@nl+1),(strncmp@n+1)
  1769  001F5A  C09D  F090         	call	_strncmp	;wreg free
  1770  001F5E  ECA3  F00D         	movlb	0	; () banked
  1771  001F62  0100               	movf	(0+?_strncmp)&0ffh,w
  1772  001F64  518B               iorwf	(1+?_strncmp)&0ffh,w
  1773  001F66  118C               	btfss	status,2
  1774  001F68  A4D8               	goto	u2601
  1775  001F6A  EFB9  F00F         	goto	u2600
  1776  001F6E  EFBB  F00F         
  1777                           u2601:
  1778  001F72                     	goto	l2816
  1779  001F72  EFC3  F00F         u2600:
  1780  001F76                     	line	150
  1781                           	
  1782                           l2812:; BSR set to: 0
  1783  001F76                     
  1784                           		movff	(strstr@h),(?_strstr)
  1785  001F76  C098  F098         	movff	(strstr@h+1),(?_strstr+1)
  1786  001F7A  C099  F099         
  1787                           	goto	l924
  1788  001F7E  EFFB  F00F         	
  1789                           l2814:; BSR set to: 0
  1790  001F82                     
  1791                           	goto	l924
  1792  001F82  EFFB  F00F         	
  1793                           l923:; BSR set to: 0
  1794  001F86                     
  1795                           	line	151
  1796                           	
  1797                           l2816:; BSR set to: 0
  1798  001F86                     
  1799                           	movlw	low(01h)
  1800  001F86  0E01               	addwf	((strstr@h))&0ffh,w
  1801  001F88  2598               	movwf	((strchr@s))&0ffh
  1802  001F8A  6F8B               	movlw	high(01h)
  1803  001F8C  0E00               	addwfc	((strstr@h+1))&0ffh,w
  1804  001F8E  2199               	movwf	1+((strchr@s))&0ffh
  1805  001F90  6F8C               	movff	(strstr@n),tblptrl
  1806  001F92  C09A  FFF6         	movff	(strstr@n+1),tblptrh
  1807  001F96  C09B  FFF7         	if	0	;tblptru may be non-zero
  1808  001F9A                     	clrf	tblptru
  1810  001F9A                     	if	0	;tblptru may be non-zero
  1811  001F9A                     	global __mediumconst
  1812                           movlw	low highword(__mediumconst)
  1815  001F9A                     	tblrd	*
  1816  001F9A  0008               	
  1817                           	movf	tablat,w
  1818  001F9C  50F5               
  1819                           	movwf	((strchr@c))&0ffh
  1820  001F9E  6F8D               	clrf	((strchr@c+1))&0ffh
  1821  001FA0  6B8E               	call	_strchr	;wreg free
  1822  001FA2  EC93  F011         	movff	0+?_strchr,(strstr@h)
  1823  001FA6  C08B  F098         	movff	1+?_strchr,(strstr@h+1)
  1824  001FAA  C08C  F099         	goto	l2818
  1825  001FAE  EFD9  F00F         	line	152
  1826                           	
  1827                           l921:
  1828  001FB2                     	line	148
  1829                           	
  1830                           l2818:
  1831  001FB2                     	movlb	0	; () banked
  1832  001FB2  0100               	movf	((strstr@h))&0ffh,w
  1833  001FB4  5198               iorwf	((strstr@h+1))&0ffh,w
  1834  001FB6  1199               	btfsc	status,2
  1835  001FB8  B4D8               	goto	u2611
  1836  001FBA  EFE1  F00F         	goto	u2610
  1837  001FBE  EFE3  F00F         
  1838                           u2611:
  1839  001FC2                     	goto	l2822
  1840  001FC2  EFF5  F00F         u2610:
  1841  001FC6                     	
  1842                           l2820:; BSR set to: 0
  1843  001FC6                     
  1844                           	movff	(strstr@h),fsr2l
  1845  001FC6  C098  FFD9         	movff	(strstr@h+1),fsr2h
  1846  001FCA  C099  FFDA         	movf	indf2,w
  1847  001FCE  50DF               	btfss	status,2
  1848  001FD0  A4D8               	goto	u2621
  1849  001FD2  EFED  F00F         	goto	u2620
  1850  001FD6  EFEF  F00F         u2621:
  1851  001FDA                     	goto	l2810
  1852  001FDA  EFA3  F00F         u2620:
  1853  001FDE                     	goto	l2822
  1854  001FDE  EFF5  F00F         	
  1855                           l926:; BSR set to: 0
  1856  001FE2                     
  1857                           	goto	l2822
  1858  001FE2  EFF5  F00F         	
  1859                           l927:; BSR set to: 0
  1860  001FE6                     
  1861                           	goto	l2822
  1862  001FE6  EFF5  F00F         	line	153
  1863                           	
  1864                           l920:; BSR set to: 0
  1865  001FEA                     
  1866                           	line	154
  1867                           	
  1868                           l2822:; BSR set to: 0
  1869  001FEA                     
  1870                           		movlw	low(0)
  1871  001FEA  0E00               	movwf	((?_strstr))&0ffh
  1872  001FEC  6F98               	movlw	high(0)
  1873  001FEE  0E00               	movwf	((?_strstr+1))&0ffh
  1874  001FF0  6F99               
  1875                           	goto	l924
  1876  001FF2  EFFB  F00F         	
  1877                           l2824:; BSR set to: 0
  1878  001FF6                     
  1879                           	line	171
  1880                           	
  1881                           l924:; BSR set to: 0
  1882  001FF6                     
  1883                           	return	;funcret
  1884  001FF6  0012               	opt stack 0
  1885                           GLOBAL	__end_of_strstr
  1886                           	__end_of_strstr:
  1887  001FF8                     	signat	_strstr,8314
  1888                           	global	_strncmp
  1889                           
  1890 ;; *************** function _strncmp *****************
  1891 ;; Defined at:
  1892 ;;		line 3 in file "C:\Program Files (x86)\Microchip\xc8\v2.00\pic\sources\c99\common\strncmp.c"
  1893 ;; Parameters:    Size  Location     Type
  1894 ;;  _l              2   11[BANK0 ] PTR const unsigned char 
  1895 ;;		 -> NULL(0), mystring(10), 
  1896 ;;  _r              2   13[BANK0 ] PTR const unsigned char 
  1897 ;;		 -> STR_6(2), STR_5(5), STR_4(6), STR_3(6), 
  1898 ;;		 -> STR_2(2), 
  1899 ;;  n               2   15[BANK0 ] unsigned int 
  1900 ;; Auto vars:     Size  Location     Type
  1901 ;;  r               2   22[BANK0 ] PTR const unsigned char 
  1902 ;;		 -> STR_6(2), STR_5(5), STR_4(6), STR_3(6), 
  1903 ;;		 -> STR_2(2), 
  1904 ;;  l               2   20[BANK0 ] PTR const unsigned char 
  1905 ;;		 -> NULL(0), mystring(10), 
  1906 ;; Return value:  Size  Location     Type
  1907 ;;                  2   11[BANK0 ] int 
  1908 ;; Registers used:
  1909 ;;		wreg, fsr2l, fsr2h, status,2, status,0, tblptrl, tblptrh, tblptru
  1910 ;; Tracked objects:
  1911 ;;		On entry : 0/0
  1912 ;;		On exit  : 0/0
  1913 ;;		Unchanged: 0/0
  1914 ;; Data sizes:     COMRAM   BANK0   BANK1   BANK2   BANK3   BANK4   BANK5
  1915 ;;      Params:         0       6       0       0       0       0       0
  1916 ;;      Locals:         0       4       0       0       0       0       0
  1917 ;;      Temps:          0       3       0       0       0       0       0
  1918 ;;      Totals:         0      13       0       0       0       0       0
  1919 ;;Total ram usage:       13 bytes
  1920 ;; Hardware stack levels used:    1
  1921 ;; Hardware stack levels required when called:    6
  1922 ;; This function calls:
  1923 ;;		Nothing
  1924 ;; This function is called by:
  1925 ;;		_strstr
  1926 ;; This function uses a non-reentrant model
  1927 ;;
  1928                           psect	text2,class=CODE,space=0,reloc=2,group=2
  1929                           	file	"C:\Program Files (x86)\Microchip\xc8\v2.00\pic\sources\c99\common\strncmp.c"
  1930                           	line	3
  1931                           global __ptext2
  1932                           __ptext2:
  1933  001B46                     psect	text2
  1934                           	file	"C:\Program Files (x86)\Microchip\xc8\v2.00\pic\sources\c99\common\strncmp.c"
  1935                           	line	3
  1936                           	global	__size_of_strncmp
  1937                           	__size_of_strncmp	equ	__end_of_strncmp-_strncmp
  1938  0000                     	
  1939                           _strncmp:; BSR set to: 0
  1940  001B46                     
  1941                           ;incstack = 0
  1942                           	opt	stack 23
  1943                           	line	5
  1944                           	
  1945                           l2440:
  1946  001B46                     		movff	(strncmp@_l),(strncmp@l)
  1947  001B46  C08B  F094         	movff	(strncmp@_l+1),(strncmp@l+1)
  1948  001B4A  C08C  F095         
  1949                           		movff	(strncmp@_r),(strncmp@r)
  1950  001B4E  C08D  F096         	movff	(strncmp@_r+1),(strncmp@r+1)
  1951  001B52  C08E  F097         
  1952                           	line	6
  1953                           	movlb	0	; () banked
  1954  001B56  0100               	decf	((strncmp@n))&0ffh
  1955  001B58  078F               	btfss	status,0
  1956  001B5A  A0D8               	decf	((strncmp@n+1))&0ffh
  1957  001B5C  0790               		incf	((strncmp@n))&0ffh,w
  1958  001B5E  298F               	bnz	u2001
  1959  001B60  E106               	incf	((strncmp@n+1))&0ffh,w
  1960  001B62  2990               	btfss	status,2
  1961  001B64  A4D8               	goto	u2001
  1962  001B66  EFB7  F00D         	goto	u2000
  1963  001B6A  EFB9  F00D         
  1964                           u2001:
  1965  001B6E                     	goto	l2448
  1966  001B6E  EFCC  F00D         u2000:
  1967  001B72                     	
  1968                           l2442:; BSR set to: 0
  1969  001B72                     
  1970                           	movlw	high(0)
  1971  001B72  0E00               	movwf	((?_strncmp+1))&0ffh
  1972  001B74  6F8C               	movlw	low(0)
  1973  001B76  0E00               	movwf	((?_strncmp))&0ffh
  1974  001B78  6F8B               	goto	l943
  1975  001B7A  EF21  F00E         	
  1976                           l2444:; BSR set to: 0
  1977  001B7E                     
  1978                           	goto	l943
  1979  001B7E  EF21  F00E         	
  1980                           l942:; BSR set to: 0
  1981  001B82                     
  1982                           	line	7
  1983                           	goto	l2448
  1984  001B82  EFCC  F00D         	
  1985                           l945:; BSR set to: 0
  1986  001B86                     
  1987                           	
  1988                           l2446:; BSR set to: 0
  1989  001B86                     
  1990                           	infsnz	((strncmp@l))&0ffh
  1991  001B86  4B94               	incf	((strncmp@l+1))&0ffh
  1992  001B88  2B95               	infsnz	((strncmp@r))&0ffh
  1993  001B8A  4B96               	incf	((strncmp@r+1))&0ffh
  1994  001B8C  2B97               	decf	((strncmp@n))&0ffh
  1995  001B8E  078F               	btfss	status,0
  1996  001B90  A0D8               	decf	((strncmp@n+1))&0ffh
  1997  001B92  0790               	goto	l2448
  1998  001B94  EFCC  F00D         	
  1999                           l944:; BSR set to: 0
  2000  001B98                     
  2001                           	
  2002                           l2448:; BSR set to: 0
  2003  001B98                     
  2004                           	movff	(strncmp@l),fsr2l
  2005  001B98  C094  FFD9         	movff	(strncmp@l+1),fsr2h
  2006  001B9C  C095  FFDA         	movf	indf2,w
  2007  001BA0  50DF               	btfsc	status,2
  2008  001BA2  B4D8               	goto	u2011
  2009  001BA4  EFD6  F00D         	goto	u2010
  2010  001BA8  EFD8  F00D         u2011:
  2011  001BAC                     	goto	l2456
  2012  001BAC  EF07  F00E         u2010:
  2013  001BB0                     	
  2014                           l2450:; BSR set to: 0
  2015  001BB0                     
  2016                           	movff	(strncmp@r),tblptrl
  2017  001BB0  C096  FFF6         	movff	(strncmp@r+1),tblptrh
  2018  001BB4  C097  FFF7         	if	0	;tblptru may be non-zero
  2019  001BB8                     	clrf	tblptru
  2021  001BB8                     	if	0	;tblptru may be non-zero
  2022  001BB8                     	global __mediumconst
  2023                           movlw	low highword(__mediumconst)
  2026  001BB8                     	tblrd	*
  2027  001BB8  0008               	
  2028                           	movf	tablat,w
  2029  001BBA  50F5               	iorlw	0
  2030  001BBC  0900               	btfsc	status,2
  2031  001BBE  B4D8               	goto	u2021
  2032  001BC0  EFE4  F00D         	goto	u2020
  2033  001BC4  EFE6  F00D         u2021:
  2034  001BC8                     	goto	l2456
  2035  001BC8  EF07  F00E         u2020:
  2036  001BCC                     	
  2037                           l2452:; BSR set to: 0
  2038  001BCC                     
  2039                           	movf	((strncmp@n))&0ffh,w
  2040  001BCC  518F               iorwf	((strncmp@n+1))&0ffh,w
  2041  001BCE  1190               	btfsc	status,2
  2042  001BD0  B4D8               	goto	u2031
  2043  001BD2  EFED  F00D         	goto	u2030
  2044  001BD6  EFEF  F00D         
  2045                           u2031:
  2046  001BDA                     	goto	l2456
  2047  001BDA  EF07  F00E         u2030:
  2048  001BDE                     	
  2049                           l2454:; BSR set to: 0
  2050  001BDE                     
  2051                           	movff	(strncmp@l),fsr2l
  2052  001BDE  C094  FFD9         	movff	(strncmp@l+1),fsr2h
  2053  001BE2  C095  FFDA         	movf	indf2,w
  2054  001BE6  50DF               	movwf	(??_strncmp+0+0)&0ffh
  2055  001BE8  6F91               	movff	(strncmp@r),tblptrl
  2056  001BEA  C096  FFF6         	movff	(strncmp@r+1),tblptrh
  2057  001BEE  C097  FFF7         	if	0	;tblptru may be non-zero
  2058  001BF2                     	clrf	tblptru
  2060  001BF2                     	if	0	;tblptru may be non-zero
  2061  001BF2                     	global __mediumconst
  2062                           movlw	low highword(__mediumconst)
  2065  001BF2                     	tblrd	*
  2066  001BF2  0008               	
  2067                           	movf	tablat,w
  2068  001BF4  50F5               	xorwf	((??_strncmp+0+0))&0ffh,w
  2069  001BF6  1991               
  2070                           	btfsc	status,2
  2071  001BF8  B4D8               	goto	u2041
  2072  001BFA  EF01  F00E         	goto	u2040
  2073  001BFE  EF03  F00E         u2041:
  2074  001C02                     	goto	l2446
  2075  001C02  EFC3  F00D         u2040:
  2076  001C06                     	goto	l2456
  2077  001C06  EF07  F00E         	
  2078                           l947:; BSR set to: 0
  2079  001C0A                     
  2080                           	goto	l2456
  2081  001C0A  EF07  F00E         	
  2082                           l948:; BSR set to: 0
  2083  001C0E                     
  2084                           	line	8
  2085                           	
  2086                           l2456:; BSR set to: 0
  2087  001C0E                     
  2088                           	movff	(strncmp@r),tblptrl
  2089  001C0E  C096  FFF6         	movff	(strncmp@r+1),tblptrh
  2090  001C12  C097  FFF7         	if	0	;tblptru may be non-zero
  2091  001C16                     	clrf	tblptru
  2093  001C16                     	if	0	;tblptru may be non-zero
  2094  001C16                     	global __mediumconst
  2095                           movlw	low highword(__mediumconst)
  2098  001C16                     	tblrd	*
  2099  001C16  0008               	
  2100                           	movf	tablat,w
  2101  001C18  50F5               	movwf	(??_strncmp+0+0)&0ffh
  2102  001C1A  6F91               	clrf	(??_strncmp+0+0+1)&0ffh
  2103  001C1C  6B92               
  2104                           	comf	(??_strncmp+0+0)&0ffh
  2105  001C1E  1F91               	comf	(??_strncmp+0+1)&0ffh
  2106  001C20  1F92               	infsnz	(??_strncmp+0+0)&0ffh
  2107  001C22  4B91               	incf	(??_strncmp+0+1)&0ffh
  2108  001C24  2B92               	movff	(strncmp@l),fsr2l
  2109  001C26  C094  FFD9         	movff	(strncmp@l+1),fsr2h
  2110  001C2A  C095  FFDA         	movf	indf2,w
  2111  001C2E  50DF               	movwf	(??_strncmp+2+0)&0ffh
  2112  001C30  6F93               	movf	((??_strncmp+2+0))&0ffh,w
  2113  001C32  5193               	addwf	(??_strncmp+0+0)&0ffh,w
  2114  001C34  2591               	movwf	((?_strncmp))&0ffh
  2115  001C36  6F8B               	movlw	0
  2116  001C38  0E00               	addwfc	(??_strncmp+0+1)&0ffh,w
  2117  001C3A  2192               	movwf	1+((?_strncmp))&0ffh
  2118  001C3C  6F8C               	goto	l943
  2119  001C3E  EF21  F00E         	
  2120                           l2458:; BSR set to: 0
  2121  001C42                     
  2122                           	line	9
  2123                           	
  2124                           l943:; BSR set to: 0
  2125  001C42                     
  2126                           	return	;funcret
  2127  001C42  0012               	opt stack 0
  2128                           GLOBAL	__end_of_strncmp
  2129                           	__end_of_strncmp:
  2130  001C44                     	signat	_strncmp,12410
  2131                           	global	_strlen
  2132                           
  2133 ;; *************** function _strlen *****************
  2134 ;; Defined at:
  2135 ;;		line 12 in file "C:\Program Files (x86)\Microchip\xc8\v2.00\pic\sources\c99\common\strlen.c"
  2136 ;; Parameters:    Size  Location     Type
  2137 ;;  s               2   11[BANK0 ] PTR const unsigned char 
  2138 ;;		 -> STR_6(2), STR_5(5), STR_4(6), STR_3(6), 
  2139 ;;		 -> STR_2(2), 
  2140 ;; Auto vars:     Size  Location     Type
  2141 ;;  a               2   15[BANK0 ] PTR const unsigned char 
  2142 ;;		 -> STR_6(2), STR_5(5), STR_4(6), STR_3(6), 
  2143 ;;		 -> STR_2(2), 
  2144 ;; Return value:  Size  Location     Type
  2145 ;;                  2   11[BANK0 ] unsigned int 
  2146 ;; Registers used:
  2147 ;;		wreg, status,2, status,0, tblptrl, tblptrh, tblptru
  2148 ;; Tracked objects:
  2149 ;;		On entry : 0/0
  2150 ;;		On exit  : 0/0
  2151 ;;		Unchanged: 0/0
  2152 ;; Data sizes:     COMRAM   BANK0   BANK1   BANK2   BANK3   BANK4   BANK5
  2153 ;;      Params:         0       2       0       0       0       0       0
  2154 ;;      Locals:         0       2       0       0       0       0       0
  2155 ;;      Temps:          0       2       0       0       0       0       0
  2156 ;;      Totals:         0       6       0       0       0       0       0
  2157 ;;Total ram usage:        6 bytes
  2158 ;; Hardware stack levels used:    1
  2159 ;; Hardware stack levels required when called:    6
  2160 ;; This function calls:
  2161 ;;		Nothing
  2162 ;; This function is called by:
  2163 ;;		_strstr
  2164 ;; This function uses a non-reentrant model
  2165 ;;
  2166                           psect	text3,class=CODE,space=0,reloc=2,group=2
  2167                           	file	"C:\Program Files (x86)\Microchip\xc8\v2.00\pic\sources\c99\common\strlen.c"
  2168                           	line	12
  2169                           global __ptext3
  2170                           __ptext3:
  2171  0022CC                     psect	text3
  2172                           	file	"C:\Program Files (x86)\Microchip\xc8\v2.00\pic\sources\c99\common\strlen.c"
  2173                           	line	12
  2174                           	global	__size_of_strlen
  2175                           	__size_of_strlen	equ	__end_of_strlen-_strlen
  2176  0000                     	
  2177                           _strlen:; BSR set to: 0
  2178  0022CC                     
  2179                           ;incstack = 0
  2180                           	opt	stack 23
  2181                           	line	14
  2182                           	
  2183                           l2430:
  2184  0022CC                     		movff	(strlen@s),(strlen@a)
  2185  0022CC  C08B  F08F         	movff	(strlen@s+1),(strlen@a+1)
  2186  0022D0  C08C  F090         
  2187                           	line	16
  2188                           	goto	l2434
  2189  0022D4  EF71  F011         	
  2190                           l937:
  2191  0022D8                     	line	17
  2192                           	
  2193                           l2432:
  2194  0022D8                     	movlb	0	; () banked
  2195  0022D8  0100               	infsnz	((strlen@s))&0ffh
  2196  0022DA  4B8B               	incf	((strlen@s+1))&0ffh
  2197  0022DC  2B8C               	goto	l2434
  2198  0022DE  EF71  F011         	line	18
  2199                           	
  2200                           l936:; BSR set to: 0
  2201  0022E2                     
  2202                           	line	16
  2203                           	
  2204                           l2434:
  2205  0022E2                     	movff	(strlen@s),tblptrl
  2206  0022E2  C08B  FFF6         	movff	(strlen@s+1),tblptrh
  2207  0022E6  C08C  FFF7         	if	0	;tblptru may be non-zero
  2208  0022EA                     	clrf	tblptru
  2210  0022EA                     	if	0	;tblptru may be non-zero
  2211  0022EA                     	global __mediumconst
  2212                           movlw	low highword(__mediumconst)
  2215  0022EA                     	tblrd	*
  2216  0022EA  0008               	
  2217                           	movf	tablat,w
  2218  0022EC  50F5               	iorlw	0
  2219  0022EE  0900               	btfss	status,2
  2220  0022F0  A4D8               	goto	u1991
  2221  0022F2  EF7D  F011         	goto	u1990
  2222  0022F6  EF7F  F011         u1991:
  2223  0022FA                     	goto	l2432
  2224  0022FA  EF6C  F011         u1990:
  2225  0022FE                     	goto	l2436
  2226  0022FE  EF81  F011         	
  2227                           l938:
  2228  002302                     	line	25
  2229                           	
  2230                           l2436:
  2231  002302                     	movff	(strlen@a),??_strlen+0+0
  2232  002302  C08F  F08D         	movff	(strlen@a+1),??_strlen+0+0+1
  2233  002306  C090  F08E         	movlb	0	; () banked
  2234  00230A  0100               	comf	(??_strlen+0+0)&0ffh
  2235  00230C  1F8D               	comf	(??_strlen+0+1)&0ffh
  2236  00230E  1F8E               	infsnz	(??_strlen+0+0)&0ffh
  2237  002310  4B8D               	incf	(??_strlen+0+1)&0ffh
  2238  002312  2B8E               	movf	((strlen@s))&0ffh,w
  2239  002314  518B               	addwf	(??_strlen+0+0)&0ffh,w
  2240  002316  258D               	movwf	((?_strlen))&0ffh
  2241  002318  6F8B               	movf	((strlen@s+1))&0ffh,w
  2242  00231A  518C               	addwfc	(??_strlen+0+1)&0ffh,w
  2243  00231C  218E               	movwf	1+((?_strlen))&0ffh
  2244  00231E  6F8C               	goto	l939
  2245  002320  EF92  F011         	
  2246                           l2438:; BSR set to: 0
  2247  002324                     
  2248                           	line	26
  2249                           	
  2250                           l939:; BSR set to: 0
  2251  002324                     
  2252                           	return	;funcret
  2253  002324  0012               	opt stack 0
  2254                           GLOBAL	__end_of_strlen
  2255                           	__end_of_strlen:
  2256  002326                     	signat	_strlen,4218
  2257                           	global	_strchr
  2258                           
  2259 ;; *************** function _strchr *****************
  2260 ;; Defined at:
  2261 ;;		line 7 in file "C:\Program Files (x86)\Microchip\xc8\v2.00\pic\sources\c99\common\strchr.c"
  2262 ;; Parameters:    Size  Location     Type
  2263 ;;  s               2   11[BANK0 ] PTR const unsigned char 
  2264 ;;		 -> NULL(0), mystring(10), 
  2265 ;;  c               2   13[BANK0 ] int 
  2266 ;; Auto vars:     Size  Location     Type
  2267 ;;		None
  2268 ;; Return value:  Size  Location     Type
  2269 ;;                  2   11[BANK0 ] PTR unsigned char 
  2270 ;; Registers used:
  2271 ;;		wreg, fsr2l, fsr2h, status,2, status,0
  2272 ;; Tracked objects:
  2273 ;;		On entry : 0/0
  2274 ;;		On exit  : 0/0
  2275 ;;		Unchanged: 0/0
  2276 ;; Data sizes:     COMRAM   BANK0   BANK1   BANK2   BANK3   BANK4   BANK5
  2277 ;;      Params:         0       4       0       0       0       0       0
  2278 ;;      Locals:         0       0       0       0       0       0       0
  2279 ;;      Temps:          0       1       0       0       0       0       0
  2280 ;;      Totals:         0       5       0       0       0       0       0
  2281 ;;Total ram usage:        5 bytes
  2282 ;; Hardware stack levels used:    1
  2283 ;; Hardware stack levels required when called:    6
  2284 ;; This function calls:
  2285 ;;		Nothing
  2286 ;; This function is called by:
  2287 ;;		_strstr
  2288 ;; This function uses a non-reentrant model
  2289 ;;
  2290                           psect	text4,class=CODE,space=0,reloc=2,group=2
  2291                           	file	"C:\Program Files (x86)\Microchip\xc8\v2.00\pic\sources\c99\common\strchr.c"
  2292                           	line	7
  2293                           global __ptext4
  2294                           __ptext4:
  2295  002326                     psect	text4
  2296                           	file	"C:\Program Files (x86)\Microchip\xc8\v2.00\pic\sources\c99\common\strchr.c"
  2297                           	line	7
  2298                           	global	__size_of_strchr
  2299                           	__size_of_strchr	equ	__end_of_strchr-_strchr
  2300  0000                     	
  2301                           _strchr:; BSR set to: 0
  2302  002326                     
  2303                           ;incstack = 0
  2304                           	opt	stack 23
  2305                           	line	13
  2306                           	
  2307                           l930:
  2308  002326                     	line	14
  2309                           	
  2310                           l2460:
  2311  002326                     	movff	(strchr@s),fsr2l
  2312  002326  C08B  FFD9         	movff	(strchr@s+1),fsr2h
  2313  00232A  C08C  FFDA         	movlb	0	; () banked
  2314  00232E  0100               	movf	((strchr@c))&0ffh,w
  2315  002330  518D               xorwf	postinc2,w
  2316  002332  18DE               	btfss	status,2
  2317  002334  A4D8               	goto	u2051
  2318  002336  EF9F  F011         	goto	u2050
  2319  00233A  EFA1  F011         
  2320                           u2051:
  2321  00233E                     	goto	l2466
  2322  00233E  EFA9  F011         u2050:
  2323  002342                     	line	15
  2324                           	
  2325                           l2462:; BSR set to: 0
  2326  002342                     
  2327                           		movff	(strchr@s),(?_strchr)
  2328  002342  C08B  F08B         	movff	(strchr@s+1),(?_strchr+1)
  2329  002346  C08C  F08C         
  2330                           	goto	l932
  2331  00234A  EFBF  F011         	
  2332                           l2464:; BSR set to: 0
  2333  00234E                     
  2334                           	goto	l932
  2335  00234E  EFBF  F011         	line	16
  2336                           	
  2337                           l931:; BSR set to: 0
  2338  002352                     
  2339                           	line	17
  2340                           	
  2341                           l2466:; BSR set to: 0
  2342  002352                     
  2343                           	movff	(strchr@s),fsr2l
  2344  002352  C08B  FFD9         	movff	(strchr@s+1),fsr2h
  2345  002356  C08C  FFDA         	infsnz	((strchr@s))&0ffh
  2346  00235A  4B8B               	incf	((strchr@s+1))&0ffh
  2347  00235C  2B8C               	movf	indf2,w
  2348  00235E  50DF               	btfss	status,2
  2349  002360  A4D8               	goto	u2061
  2350  002362  EFB5  F011         	goto	u2060
  2351  002366  EFB7  F011         u2061:
  2352  00236A                     	goto	l930
  2353  00236A  EF93  F011         u2060:
  2354  00236E                     	goto	l2468
  2355  00236E  EFB9  F011         	
  2356                           l933:; BSR set to: 0
  2357  002372                     
  2358                           	line	18
  2359                           	
  2360                           l2468:; BSR set to: 0
  2361  002372                     
  2362                           		movlw	low(0)
  2363  002372  0E00               	movwf	((?_strchr))&0ffh
  2364  002374  6F8B               	movlw	high(0)
  2365  002376  0E00               	movwf	((?_strchr+1))&0ffh
  2366  002378  6F8C               
  2367                           	goto	l932
  2368  00237A  EFBF  F011         	
  2369                           l2470:; BSR set to: 0
  2370  00237E                     
  2371                           	line	20
  2372                           	
  2373                           l932:; BSR set to: 0
  2374  00237E                     
  2375                           	return	;funcret
  2376  00237E  0012               	opt stack 0
  2377                           GLOBAL	__end_of_strchr
  2378                           	__end_of_strchr:
  2379  002380                     	signat	_strchr,8314
  2380                           	global	_UART_Initialize
  2381                           
  2382 ;; *************** function _UART_Initialize *****************
  2383 ;; Defined at:
  2384 ;;		line 356 in file "Problem3.c"
  2385 ;; Parameters:    Size  Location     Type
  2386 ;;		None
  2387 ;; Auto vars:     Size  Location     Type
  2388 ;;		None
  2389 ;; Return value:  Size  Location     Type
  2390 ;;                  1    wreg      void 
  2391 ;; Registers used:
  2392 ;;		wreg, status,2
  2393 ;; Tracked objects:
  2394 ;;		On entry : 0/0
  2395 ;;		On exit  : 0/0
  2396 ;;		Unchanged: 0/0
  2397 ;; Data sizes:     COMRAM   BANK0   BANK1   BANK2   BANK3   BANK4   BANK5
  2398 ;;      Params:         0       0       0       0       0       0       0
  2399 ;;      Locals:         0       0       0       0       0       0       0
  2400 ;;      Temps:          0       0       0       0       0       0       0
  2401 ;;      Totals:         0       0       0       0       0       0       0
  2402 ;;Total ram usage:        0 bytes
  2403 ;; Hardware stack levels used:    1
  2404 ;; Hardware stack levels required when called:    6
  2405 ;; This function calls:
  2406 ;;		Nothing
  2407 ;; This function is called by:
  2408 ;;		_main
  2409 ;; This function uses a non-reentrant model
  2410 ;;
  2411                           psect	text5,class=CODE,space=0,reloc=2,group=0
  2412                           	file	"Problem3.c"
  2413                           	line	356
  2414                           global __ptext5
  2415                           __ptext5:
  2416  002648                     psect	text5
  2417                           	file	"Problem3.c"
  2418                           	line	356
  2419                           	global	__size_of_UART_Initialize
  2420                           	__size_of_UART_Initialize	equ	__end_of_UART_Initialize-_UART_Initialize
  2421  0000                     	
  2422                           _UART_Initialize:; BSR set to: 0
  2423  002648                     
  2424                           ;incstack = 0
  2425                           	opt	stack 24
  2426                           	line	359
  2427                           	
  2428                           l2838:
  2429  002648                     ;Problem3.c: 359:     TRISCbits.TRISC6 = 1;
  2430                           	bsf	((c:3988)),c,6	;volatile
  2431  002648  8C94               	line	360
  2432                           ;Problem3.c: 360:     TRISCbits.TRISC7 = 1;
  2433                           	bsf	((c:3988)),c,7	;volatile
  2434  00264A  8E94               	line	371
  2435                           ;Problem3.c: 371:     TXSTAbits.SYNC = 0;
  2436                           	bcf	((c:4012)),c,4	;volatile
  2437  00264C  98AC               	line	372
  2438                           ;Problem3.c: 372:     BAUDCONbits.BRG16 = 0 ;
  2439                           	bcf	((c:4024)),c,3	;volatile
  2440  00264E  96B8               	line	373
  2441                           ;Problem3.c: 373:     TXSTAbits.BRGH = 1;
  2442                           	bsf	((c:4012)),c,2	;volatile
  2443  002650  84AC               	line	374
  2444                           	
  2445                           l2840:
  2446  002652                     ;Problem3.c: 374:     SPBRG = 51;
  2447                           	movlw	low(033h)
  2448  002652  0E33               	movwf	((c:4015)),c	;volatile
  2449  002654  6EAF               	line	378
  2450                           	
  2451                           l2842:
  2452  002656                     ;Problem3.c: 378:     RCSTAbits.SPEN = 1;
  2453                           	bsf	((c:4011)),c,7	;volatile
  2454  002656  8EAB               	line	379
  2455                           	
  2456                           l2844:
  2457  002658                     ;Problem3.c: 379:     PIR1bits.TXIF = 1;
  2458                           	bsf	((c:3998)),c,4	;volatile
  2459  002658  889E               	line	380
  2460                           	
  2461                           l2846:
  2462  00265A                     ;Problem3.c: 380:     PIR1bits.RCIF = 0;
  2463                           	bcf	((c:3998)),c,5	;volatile
  2464  00265A  9A9E               	line	381
  2465                           	
  2466                           l2848:
  2467  00265C                     ;Problem3.c: 381:     TXSTAbits.TXEN = 1;
  2468                           	bsf	((c:4012)),c,5	;volatile
  2469  00265C  8AAC               	line	382
  2470                           	
  2471                           l2850:
  2472  00265E                     ;Problem3.c: 382:     RCSTAbits.CREN = 1;
  2473                           	bsf	((c:4011)),c,4	;volatile
  2474  00265E  88AB               	line	384
  2475                           	
  2476                           l2852:
  2477  002660                     ;Problem3.c: 384:     PIE1bits.TXIE = 0;
  2478                           	bcf	((c:3997)),c,4	;volatile
  2479  002660  989D               	line	385
  2480                           	
  2481                           l2854:
  2482  002662                     ;Problem3.c: 385:     IPR1bits.TXIP = 0;
  2483                           	bcf	((c:3999)),c,4	;volatile
  2484  002662  989F               	line	386
  2485                           	
  2486                           l2856:
  2487  002664                     ;Problem3.c: 386:     PIE1bits.RCIE = 1;
  2488                           	bsf	((c:3997)),c,5	;volatile
  2489  002664  8A9D               	line	387
  2490                           	
  2491                           l2858:
  2492  002666                     ;Problem3.c: 387:     IPR1bits.RCIP = 0;
  2493                           	bcf	((c:3999)),c,5	;volatile
  2494  002666  9A9F               	line	388
  2495                           	
  2496                           l195:
  2497  002668                     	return	;funcret
  2498  002668  0012               	opt stack 0
  2499                           GLOBAL	__end_of_UART_Initialize
  2500                           	__end_of_UART_Initialize:
  2501  00266A                     	signat	_UART_Initialize,89
  2502                           	global	_Mode3
  2503                           
  2504 ;; *************** function _Mode3 *****************
  2505 ;; Defined at:
  2506 ;;		line 128 in file "Problem3.c"
  2507 ;; Parameters:    Size  Location     Type
  2508 ;;		None
  2509 ;; Auto vars:     Size  Location     Type
  2510 ;;  digital         2   69[BANK0 ] int 
  2511 ;; Return value:  Size  Location     Type
  2512 ;;                  1    wreg      void 
  2513 ;; Registers used:
  2514 ;;		wreg, fsr2l, fsr2h, status,2, status,0, prodl, prodh, cstack
  2515 ;; Tracked objects:
  2516 ;;		On entry : 0/0
  2517 ;;		On exit  : 0/0
  2518 ;;		Unchanged: 0/0
  2519 ;; Data sizes:     COMRAM   BANK0   BANK1   BANK2   BANK3   BANK4   BANK5
  2520 ;;      Params:         0       0       0       0       0       0       0
  2521 ;;      Locals:         0       2       0       0       0       0       0
  2522 ;;      Temps:          0       0       0       0       0       0       0
  2523 ;;      Totals:         0       2       0       0       0       0       0
  2524 ;;Total ram usage:        2 bytes
  2525 ;; Hardware stack levels used:    1
  2526 ;; Hardware stack levels required when called:    8
  2527 ;; This function calls:
  2528 ;;		_ADC_Read
  2529 ;;		_ClearBuffer
  2530 ;;		_PrintVoltage
  2531 ;;		_UART_Write
  2532 ;;		_adc_init_2_2
  2533 ;; This function is called by:
  2534 ;;		_main
  2535 ;; This function uses a non-reentrant model
  2536 ;;
  2537                           psect	text6,class=CODE,space=0,reloc=2,group=0
  2538                           	line	128
  2539                           global __ptext6
  2540                           __ptext6:
  2541  002570                     psect	text6
  2542                           	file	"Problem3.c"
  2543                           	line	128
  2544                           	global	__size_of_Mode3
  2545                           	__size_of_Mode3	equ	__end_of_Mode3-_Mode3
  2546  0000                     	
  2547                           _Mode3:
  2548  002570                     ;incstack = 0
  2549                           	opt	stack 22
  2550                           	line	129
  2551                           	
  2552                           l2826:
  2553  002570                     ;Problem3.c: 129:     ClearBuffer();
  2554                           	call	_ClearBuffer	;wreg free
  2555  002570  EC30  F011         	line	130
  2556                           	
  2557                           l2828:
  2558  002574                     ;Problem3.c: 130:     adc_init_2_2();
  2559                           	call	_adc_init_2_2	;wreg free
  2560  002574  EC9E  F012         	line	131
  2561                           	
  2562                           l2830:
  2563  002578                     ;Problem3.c: 131:     int digital = ADC_Read(7);
  2564                           	movlw	high(07h)
  2565  002578  0E00               	movlb	0	; () banked
  2566  00257A  0100               	movwf	((ADC_Read@channel+1))&0ffh
  2567  00257C  6F8C               	movlw	low(07h)
  2568  00257E  0E07               	movwf	((ADC_Read@channel))&0ffh
  2569  002580  6F8B               	call	_ADC_Read	;wreg free
  2570  002582  EC17  F012         	movff	0+?_ADC_Read,(Mode3@digital)
  2571  002586  C08B  F0C5         	movff	1+?_ADC_Read,(Mode3@digital+1)
  2572  00258A  C08C  F0C6         	line	132
  2573                           	
  2574                           l2832:
  2575  00258E                     ;Problem3.c: 132:     PrintVoltage(digital);
  2576                           	movff	(Mode3@digital),(PrintVoltage@digital)
  2577  00258E  C0C5  F0BC         	movff	(Mode3@digital+1),(PrintVoltage@digital+1)
  2578  002592  C0C6  F0BD         	call	_PrintVoltage	;wreg free
  2579  002596  EC81  F007         	line	133
  2580                           	
  2581                           l2834:
  2582  00259A                     ;Problem3.c: 133:     UART_Write('\n');
  2583                           	movlw	(0Ah)&0ffh
  2584  00259A  0E0A               	
  2585                           	call	_UART_Write
  2586  00259C  EC35  F013         	line	134
  2587                           	
  2588                           l149:
  2589  0025A0                     	return	;funcret
  2590  0025A0  0012               	opt stack 0
  2591                           GLOBAL	__end_of_Mode3
  2592                           	__end_of_Mode3:
  2593  0025A2                     	signat	_Mode3,89
  2594                           	global	_adc_init_2_2
  2595                           
  2596 ;; *************** function _adc_init_2_2 *****************
  2597 ;; Defined at:
  2598 ;;		line 304 in file "Problem3.c"
  2599 ;; Parameters:    Size  Location     Type
  2600 ;;		None
  2601 ;; Auto vars:     Size  Location     Type
  2602 ;;		None
  2603 ;; Return value:  Size  Location     Type
  2604 ;;                  1    wreg      void 
  2605 ;; Registers used:
  2606 ;;		wreg, status,2
  2607 ;; Tracked objects:
  2608 ;;		On entry : 0/0
  2609 ;;		On exit  : 0/0
  2610 ;;		Unchanged: 0/0
  2611 ;; Data sizes:     COMRAM   BANK0   BANK1   BANK2   BANK3   BANK4   BANK5
  2612 ;;      Params:         0       0       0       0       0       0       0
  2613 ;;      Locals:         0       0       0       0       0       0       0
  2614 ;;      Temps:          0       0       0       0       0       0       0
  2615 ;;      Totals:         0       0       0       0       0       0       0
  2616 ;;Total ram usage:        0 bytes
  2617 ;; Hardware stack levels used:    1
  2618 ;; Hardware stack levels required when called:    6
  2619 ;; This function calls:
  2620 ;;		Nothing
  2621 ;; This function is called by:
  2622 ;;		_Mode3
  2623 ;;		_Mode2_2
  2624 ;; This function uses a non-reentrant model
  2625 ;;
  2626                           psect	text7,class=CODE,space=0,reloc=2,group=0
  2627                           	line	304
  2628                           global __ptext7
  2629                           __ptext7:
  2630  00253C                     psect	text7
  2631                           	file	"Problem3.c"
  2632                           	line	304
  2633                           	global	__size_of_adc_init_2_2
  2634                           	__size_of_adc_init_2_2	equ	__end_of_adc_init_2_2-_adc_init_2_2
  2635  0000                     	
  2636                           _adc_init_2_2:
  2637  00253C                     ;incstack = 0
  2638                           	opt	stack 23
  2639                           	line	305
  2640                           	
  2641                           l2330:
  2642  00253C                     ;Problem3.c: 305:     TRISA = 0xff;
  2643                           	setf	((c:3986)),c	;volatile
  2644  00253C  6892               	line	306
  2645                           ;Problem3.c: 306:     TRISEbits.TRISE2 = 1;
  2646                           	bsf	((c:3990)),c,2	;volatile
  2647  00253E  8496               	line	309
  2648                           ;Problem3.c: 309:     ADFM = 1 ;
  2649                           	bsf	c:(32263/8),(32263)&7	;volatile
  2650  002540  8EC0               	line	310
  2651                           ;Problem3.c: 310:     ADCON2bits.ADCS = 7;
  2652                           		
  2653                           	bsf	((c:4032)),c, 0+0	;volatile
  2654  002542  80C0               	bsf	((c:4032)),c, 0+1	;volatile
  2655  002544  82C0               	bsf	((c:4032)),c, 0+2	;volatile
  2656  002546  84C0               
  2657                           	line	311
  2658                           	
  2659                           l2332:
  2660  002548                     ;Problem3.c: 311:     ADRESH=0;
  2661                           	movlw	low(0)
  2662  002548  0E00               	movwf	((c:4036)),c	;volatile
  2663  00254A  6EC4               	line	312
  2664                           ;Problem3.c: 312:     ADRESL=0;
  2665                           	movlw	low(0)
  2666  00254C  0E00               	movwf	((c:4035)),c	;volatile
  2667  00254E  6EC3               	line	314
  2668                           	
  2669                           l2334:
  2670  002550                     ;Problem3.c: 314:     ADCON1bits.VCFG1 = 0;
  2671                           	bcf	((c:4033)),c,5	;volatile
  2672  002550  9AC1               	line	315
  2673                           	
  2674                           l2336:
  2675  002552                     ;Problem3.c: 315:     ADCON1bits.VCFG0 = 0;
  2676                           	bcf	((c:4033)),c,4	;volatile
  2677  002552  98C1               	line	316
  2678                           	
  2679                           l2338:
  2680  002554                     ;Problem3.c: 316:     ADCON1bits.PCFG = 0;
  2681                           		
  2682                           	bcf	((c:4033)),c, 0+0	;volatile
  2683  002554  90C1               	bcf	((c:4033)),c, 0+1	;volatile
  2684  002556  92C1               	bcf	((c:4033)),c, 0+2	;volatile
  2685  002558  94C1               	bcf	((c:4033)),c, 0+3	;volatile
  2686  00255A  96C1               
  2687                           	line	318
  2688                           ;Problem3.c: 318:     ADCON2bits.ACQT = 1;
  2689                           	movf	((c:4032)),c,w	;volatile
  2690  00255C  50C0               	andlw	not (((1<<3)-1)<<3)
  2691  00255E  0BC7               	iorlw	(01h & ((1<<3)-1))<<3
  2692  002560  0908               	movwf	((c:4032)),c	;volatile
  2693  002562  6EC0               	line	319
  2694                           ;Problem3.c: 319:     ADCON2bits.ADCS = 3;
  2695                           	movf	((c:4032)),c,w	;volatile
  2696  002564  50C0               	andlw	not (((1<<3)-1)<<0)
  2697  002566  0BF8               	iorlw	(03h & ((1<<3)-1))<<0
  2698  002568  0903               	movwf	((c:4032)),c	;volatile
  2699  00256A  6EC0               	line	320
  2700                           	
  2701                           l2340:
  2702  00256C                     ;Problem3.c: 320:     ADCON0bits.ADON = 1;
  2703                           	bsf	((c:4034)),c,0	;volatile
  2704  00256C  80C2               	line	322
  2705                           	
  2706                           l183:
  2707  00256E                     	return	;funcret
  2708  00256E  0012               	opt stack 0
  2709                           GLOBAL	__end_of_adc_init_2_2
  2710                           	__end_of_adc_init_2_2:
  2711  002570                     	signat	_adc_init_2_2,89
  2712                           	global	_PrintVoltage
  2713                           
  2714 ;; *************** function _PrintVoltage *****************
  2715 ;; Defined at:
  2716 ;;		line 201 in file "Problem3.c"
  2717 ;; Parameters:    Size  Location     Type
  2718 ;;  digital         2   60[BANK0 ] int 
  2719 ;; Auto vars:     Size  Location     Type
  2720 ;;  voltage         4   62[BANK0 ] float 
  2721 ;;  temp            2   67[BANK0 ] int 
  2722 ;;  c               1   66[BANK0 ] unsigned char 
  2723 ;; Return value:  Size  Location     Type
  2724 ;;                  1    wreg      void 
  2725 ;; Registers used:
  2726 ;;		wreg, status,2, status,0, prodl, prodh, cstack
  2727 ;; Tracked objects:
  2728 ;;		On entry : 0/0
  2729 ;;		On exit  : 0/0
  2730 ;;		Unchanged: 0/0
  2731 ;; Data sizes:     COMRAM   BANK0   BANK1   BANK2   BANK3   BANK4   BANK5
  2732 ;;      Params:         0       2       0       0       0       0       0
  2733 ;;      Locals:         0       7       0       0       0       0       0
  2734 ;;      Temps:          0       0       0       0       0       0       0
  2735 ;;      Totals:         0       9       0       0       0       0       0
  2736 ;;Total ram usage:        9 bytes
  2737 ;; Hardware stack levels used:    1
  2738 ;; Hardware stack levels required when called:    7
  2739 ;; This function calls:
  2740 ;;		_UART_Write
  2741 ;;		___awdiv
  2742 ;;		___flmul
  2743 ;;		___fltol
  2744 ;;		___wmul
  2745 ;;		___xxtofl
  2746 ;; This function is called by:
  2747 ;;		_Mode3
  2748 ;;		_Mode2_2
  2749 ;; This function uses a non-reentrant model
  2750 ;;
  2751                           psect	text8,class=CODE,space=0,reloc=2,group=0
  2752                           	line	201
  2753                           global __ptext8
  2754                           __ptext8:
  2755  000F02                     psect	text8
  2756                           	file	"Problem3.c"
  2757                           	line	201
  2758                           	global	__size_of_PrintVoltage
  2759                           	__size_of_PrintVoltage	equ	__end_of_PrintVoltage-_PrintVoltage
  2760  0000                     	
  2761                           _PrintVoltage:
  2762  000F02                     ;incstack = 0
  2763                           	opt	stack 22
  2764                           	line	203
  2765                           	
  2766                           l2354:
  2767  000F02                     ;Problem3.c: 201: void PrintVoltage(int digital);Problem3.c: 202: {;Problem3.c: 203:    
                                  float voltage = 0.0;
  2768                           	movlw	low(normalize32(0x0))
  2769  000F02  0E00               	movlb	0	; () banked
  2770  000F04  0100               	movwf	((PrintVoltage@voltage))&0ffh
  2771  000F06  6FBE               	movlw	high(normalize32(0x0))
  2772  000F08  0E00               	movwf	((PrintVoltage@voltage+1))&0ffh
  2773  000F0A  6FBF               	movlw	low highword(normalize32(0x0))
  2774  000F0C  0E00               	movwf	((PrintVoltage@voltage+2))&0ffh
  2775  000F0E  6FC0               	movlw	high highword(normalize32(0x0))
  2776  000F10  0E00               	movwf	((PrintVoltage@voltage+3))&0ffh
  2777  000F12  6FC1               	line	204
  2778                           	
  2779                           l2356:; BSR set to: 0
  2780  000F14                     
  2781                           ;Problem3.c: 204:     voltage = digital* ((float)5/1023);
  2782                           	movff	(PrintVoltage@digital),(___xxtofl@val)
  2783  000F14  C0BC  F08B         	movff	(PrintVoltage@digital+1),(___xxtofl@val+1)
  2784  000F18  C0BD  F08C         	movlw	0
  2785  000F1C  0E00               	btfsc	((___xxtofl@val+1))&0ffh,7
  2786  000F1E  BF8C               	movlw	-1
  2787  000F20  0EFF               	movwf	((___xxtofl@val+2))&0ffh
  2788  000F22  6F8D               	movwf	((___xxtofl@val+3))&0ffh
  2789  000F24  6F8E               	movlw	(01h)&0ffh
  2790  000F26  0E01               	
  2791                           	call	___xxtofl
  2792  000F28  ECED  F009         	movff	0+?___xxtofl,(___flmul@b)
  2793  000F2C  C08B  F099         	movff	1+?___xxtofl,(___flmul@b+1)
  2794  000F30  C08C  F09A         	movff	2+?___xxtofl,(___flmul@b+2)
  2795  000F34  C08D  F09B         	movff	3+?___xxtofl,(___flmul@b+3)
  2796  000F38  C08E  F09C         	
  2797                           	movlw	low(normalize32(0x3ba0280a))
  2798  000F3C  0E0A               	movlb	0	; () banked
  2799  000F3E  0100               	movwf	((___flmul@a))&0ffh
  2800  000F40  6F9D               	movlw	high(normalize32(0x3ba0280a))
  2801  000F42  0E28               	movwf	((___flmul@a+1))&0ffh
  2802  000F44  6F9E               	movlw	low highword(normalize32(0x3ba0280a))
  2803  000F46  0EA0               	movwf	((___flmul@a+2))&0ffh
  2804  000F48  6F9F               	movlw	high highword(normalize32(0x3ba0280a))
  2805  000F4A  0E3B               	movwf	((___flmul@a+3))&0ffh
  2806  000F4C  6FA0               	call	___flmul	;wreg free
  2807  000F4E  EC12  F003         	movff	0+?___flmul,(PrintVoltage@voltage)
  2808  000F52  C099  F0BE         	movff	1+?___flmul,(PrintVoltage@voltage+1)
  2809  000F56  C09A  F0BF         	movff	2+?___flmul,(PrintVoltage@voltage+2)
  2810  000F5A  C09B  F0C0         	movff	3+?___flmul,(PrintVoltage@voltage+3)
  2811  000F5E  C09C  F0C1         	
  2812                           	line	208
  2813                           	
  2814                           l2358:
  2815  000F62                     ;Problem3.c: 208:         int temp = voltage*100;
  2816                           	movlw	low(normalize32(0x42c80000))
  2817  000F62  0E00               	movlb	0	; () banked
  2818  000F64  0100               	movwf	((___flmul@a))&0ffh
  2819  000F66  6F9D               	movlw	high(normalize32(0x42c80000))
  2820  000F68  0E00               	movwf	((___flmul@a+1))&0ffh
  2821  000F6A  6F9E               	movlw	low highword(normalize32(0x42c80000))
  2822  000F6C  0EC8               	movwf	((___flmul@a+2))&0ffh
  2823  000F6E  6F9F               	movlw	high highword(normalize32(0x42c80000))
  2824  000F70  0E42               	movwf	((___flmul@a+3))&0ffh
  2825  000F72  6FA0               	movff	(PrintVoltage@voltage),(___flmul@b)
  2826  000F74  C0BE  F099         	movff	(PrintVoltage@voltage+1),(___flmul@b+1)
  2827  000F78  C0BF  F09A         	movff	(PrintVoltage@voltage+2),(___flmul@b+2)
  2828  000F7C  C0C0  F09B         	movff	(PrintVoltage@voltage+3),(___flmul@b+3)
  2829  000F80  C0C1  F09C         	call	___flmul	;wreg free
  2830  000F84  EC12  F003         	movff	0+?___flmul,(___fltol@f1)
  2831  000F88  C099  F0B2         	movff	1+?___flmul,(___fltol@f1+1)
  2832  000F8C  C09A  F0B3         	movff	2+?___flmul,(___fltol@f1+2)
  2833  000F90  C09B  F0B4         	movff	3+?___flmul,(___fltol@f1+3)
  2834  000F94  C09C  F0B5         	
  2835                           	call	___fltol	;wreg free
  2836  000F98  ECCB  F00B         	movff	0+?___fltol,(PrintVoltage@temp)
  2837  000F9C  C0B2  F0C3         	movff	1+?___fltol,(PrintVoltage@temp+1)
  2838  000FA0  C0B3  F0C4         	line	210
  2839                           ;Problem3.c: 209:         char c;;Problem3.c: 210:         c = '\n';
  2840                           	movlw	low(0Ah)
  2841  000FA4  0E0A               	movlb	0	; () banked
  2842  000FA6  0100               	movwf	((PrintVoltage@c))&0ffh
  2843  000FA8  6FC2               	line	211
  2844                           	
  2845                           l2360:; BSR set to: 0
  2846  000FAA                     
  2847                           ;Problem3.c: 211:         UART_Write(c);
  2848                           	movf	((PrintVoltage@c))&0ffh,w
  2849  000FAA  51C2               	
  2850                           	call	_UART_Write
  2851  000FAC  EC35  F013         	line	212
  2852                           	
  2853                           l2362:
  2854  000FB0                     ;Problem3.c: 212:         if(temp/100 > 0)
  2855                           	movff	(PrintVoltage@temp),(___awdiv@dividend)
  2856  000FB0  C0C3  F08B         	movff	(PrintVoltage@temp+1),(___awdiv@dividend+1)
  2857  000FB4  C0C4  F08C         	movlw	high(064h)
  2858  000FB8  0E00               	movlb	0	; () banked
  2859  000FBA  0100               	movwf	((___awdiv@divisor+1))&0ffh
  2860  000FBC  6F8E               	movlw	low(064h)
  2861  000FBE  0E64               	movwf	((___awdiv@divisor))&0ffh
  2862  000FC0  6F8D               	call	___awdiv	;wreg free
  2863  000FC2  ECA0  F00E         	movlb	0	; () banked
  2864  000FC6  0100               	btfsc	(1+?___awdiv)&0ffh,7
  2865  000FC8  BF8C               	goto	u1911
  2866  000FCA  EFEF  F007         	movf	(1+?___awdiv)&0ffh,w
  2867  000FCE  518C               	bnz	u1910
  2868  000FD0  E108               	decf	(0+?___awdiv)&0ffh,w
  2869  000FD2  058B               	btfss	status,0
  2870  000FD4  A0D8               	goto	u1911
  2871  000FD6  EFEF  F007         	goto	u1910
  2872  000FDA  EFF1  F007         
  2873                           u1911:
  2874  000FDE                     	goto	l2378
  2875  000FDE  EF59  F008         u1910:
  2876  000FE2                     	line	214
  2877                           	
  2878                           l2364:; BSR set to: 0
  2879  000FE2                     
  2880                           ;Problem3.c: 213:         {;Problem3.c: 214:             c = temp/100 + '0';
  2881                           	movff	(PrintVoltage@temp),(___awdiv@dividend)
  2882  000FE2  C0C3  F08B         	movff	(PrintVoltage@temp+1),(___awdiv@dividend+1)
  2883  000FE6  C0C4  F08C         	movlw	high(064h)
  2884  000FEA  0E00               	movwf	((___awdiv@divisor+1))&0ffh
  2885  000FEC  6F8E               	movlw	low(064h)
  2886  000FEE  0E64               	movwf	((___awdiv@divisor))&0ffh
  2887  000FF0  6F8D               	call	___awdiv	;wreg free
  2888  000FF2  ECA0  F00E         	movlb	0	; () banked
  2889  000FF6  0100               	movf	(0+?___awdiv)&0ffh,w
  2890  000FF8  518B               	addlw	low(030h)
  2891  000FFA  0F30               	movwf	((PrintVoltage@c))&0ffh
  2892  000FFC  6FC2               	line	215
  2893                           	
  2894                           l2366:; BSR set to: 0
  2895  000FFE                     
  2896                           ;Problem3.c: 215:             temp = temp - temp/100*100;
  2897                           	movlw	high(064h)
  2898  000FFE  0E00               	movwf	((___awdiv@divisor+1))&0ffh
  2899  001000  6F8E               	movlw	low(064h)
  2900  001002  0E64               	movwf	((___awdiv@divisor))&0ffh
  2901  001004  6F8D               	movff	(PrintVoltage@temp),(___awdiv@dividend)
  2902  001006  C0C3  F08B         	movff	(PrintVoltage@temp+1),(___awdiv@dividend+1)
  2903  00100A  C0C4  F08C         	call	___awdiv	;wreg free
  2904  00100E  ECA0  F00E         	movff	0+?___awdiv,(___wmul@multiplier)
  2905  001012  C08B  F093         	movff	1+?___awdiv,(___wmul@multiplier+1)
  2906  001016  C08C  F094         	movlw	high(064h)
  2907  00101A  0E00               	movlb	0	; () banked
  2908  00101C  0100               	movwf	((___wmul@multiplicand+1))&0ffh
  2909  00101E  6F96               	movlw	low(064h)
  2910  001020  0E64               	movwf	((___wmul@multiplicand))&0ffh
  2911  001022  6F95               	call	___wmul	;wreg free
  2912  001024  ECD1  F012         	movlb	0	; () banked
  2913  001028  0100               	comf	(0+?___wmul)&0ffh
  2914  00102A  1F93               	comf	(1+?___wmul)&0ffh
  2915  00102C  1F94               	infsnz	(0+?___wmul)&0ffh
  2916  00102E  4B93               	incf	(1+?___wmul)&0ffh
  2917  001030  2B94               	movf	((PrintVoltage@temp))&0ffh,w
  2918  001032  51C3               	addwf	(0+?___wmul)&0ffh,w
  2919  001034  2593               	movwf	((PrintVoltage@temp))&0ffh
  2920  001036  6FC3               	movf	((PrintVoltage@temp+1))&0ffh,w
  2921  001038  51C4               	addwfc	(1+?___wmul)&0ffh,w
  2922  00103A  2194               	movwf	1+((PrintVoltage@temp))&0ffh
  2923  00103C  6FC4               	line	216
  2924                           	
  2925                           l2368:; BSR set to: 0
  2926  00103E                     
  2927                           ;Problem3.c: 216:             UART_Write(c);
  2928                           	movf	((PrintVoltage@c))&0ffh,w
  2929  00103E  51C2               	
  2930                           	call	_UART_Write
  2931  001040  EC35  F013         	line	218
  2932                           	
  2933                           l2370:
  2934  001044                     ;Problem3.c: 218:             UART_Write('.');
  2935                           	movlw	(02Eh)&0ffh
  2936  001044  0E2E               	
  2937                           	call	_UART_Write
  2938  001046  EC35  F013         	line	220
  2939                           	
  2940                           l2372:
  2941  00104A                     ;Problem3.c: 220:             c = temp/10 + '0';
  2942                           	movff	(PrintVoltage@temp),(___awdiv@dividend)
  2943  00104A  C0C3  F08B         	movff	(PrintVoltage@temp+1),(___awdiv@dividend+1)
  2944  00104E  C0C4  F08C         	movlw	high(0Ah)
  2945  001052  0E00               	movlb	0	; () banked
  2946  001054  0100               	movwf	((___awdiv@divisor+1))&0ffh
  2947  001056  6F8E               	movlw	low(0Ah)
  2948  001058  0E0A               	movwf	((___awdiv@divisor))&0ffh
  2949  00105A  6F8D               	call	___awdiv	;wreg free
  2950  00105C  ECA0  F00E         	movlb	0	; () banked
  2951  001060  0100               	movf	(0+?___awdiv)&0ffh,w
  2952  001062  518B               	addlw	low(030h)
  2953  001064  0F30               	movwf	((PrintVoltage@c))&0ffh
  2954  001066  6FC2               	line	221
  2955                           	
  2956                           l2374:; BSR set to: 0
  2957  001068                     
  2958                           ;Problem3.c: 221:             temp = temp - temp/10*10;
  2959                           	movlw	high(0Ah)
  2960  001068  0E00               	movwf	((___awdiv@divisor+1))&0ffh
  2961  00106A  6F8E               	movlw	low(0Ah)
  2962  00106C  0E0A               	movwf	((___awdiv@divisor))&0ffh
  2963  00106E  6F8D               	movff	(PrintVoltage@temp),(___awdiv@dividend)
  2964  001070  C0C3  F08B         	movff	(PrintVoltage@temp+1),(___awdiv@dividend+1)
  2965  001074  C0C4  F08C         	call	___awdiv	;wreg free
  2966  001078  ECA0  F00E         	movff	0+?___awdiv,(___wmul@multiplier)
  2967  00107C  C08B  F093         	movff	1+?___awdiv,(___wmul@multiplier+1)
  2968  001080  C08C  F094         	movlw	high(0Ah)
  2969  001084  0E00               	movlb	0	; () banked
  2970  001086  0100               	movwf	((___wmul@multiplicand+1))&0ffh
  2971  001088  6F96               	movlw	low(0Ah)
  2972  00108A  0E0A               	movwf	((___wmul@multiplicand))&0ffh
  2973  00108C  6F95               	call	___wmul	;wreg free
  2974  00108E  ECD1  F012         	movlb	0	; () banked
  2975  001092  0100               	comf	(0+?___wmul)&0ffh
  2976  001094  1F93               	comf	(1+?___wmul)&0ffh
  2977  001096  1F94               	infsnz	(0+?___wmul)&0ffh
  2978  001098  4B93               	incf	(1+?___wmul)&0ffh
  2979  00109A  2B94               	movf	((PrintVoltage@temp))&0ffh,w
  2980  00109C  51C3               	addwf	(0+?___wmul)&0ffh,w
  2981  00109E  2593               	movwf	((PrintVoltage@temp))&0ffh
  2982  0010A0  6FC3               	movf	((PrintVoltage@temp+1))&0ffh,w
  2983  0010A2  51C4               	addwfc	(1+?___wmul)&0ffh,w
  2984  0010A4  2194               	movwf	1+((PrintVoltage@temp))&0ffh
  2985  0010A6  6FC4               	line	222
  2986                           	
  2987                           l2376:; BSR set to: 0
  2988  0010A8                     
  2989                           ;Problem3.c: 222:             UART_Write(c);
  2990                           	movf	((PrintVoltage@c))&0ffh,w
  2991  0010A8  51C2               	
  2992                           	call	_UART_Write
  2993  0010AA  EC35  F013         	line	223
  2994                           ;Problem3.c: 223:         }
  2995                           	goto	l2390
  2996  0010AE  EFB9  F008         	line	224
  2997                           ;Problem3.c: 224:         else if(temp/10 > 0)
  2998                           	
  2999                           l163:
  3000  0010B2                     	
  3001                           l2378:
  3002  0010B2                     	movff	(PrintVoltage@temp),(___awdiv@dividend)
  3003  0010B2  C0C3  F08B         	movff	(PrintVoltage@temp+1),(___awdiv@dividend+1)
  3004  0010B6  C0C4  F08C         	movlw	high(0Ah)
  3005  0010BA  0E00               	movlb	0	; () banked
  3006  0010BC  0100               	movwf	((___awdiv@divisor+1))&0ffh
  3007  0010BE  6F8E               	movlw	low(0Ah)
  3008  0010C0  0E0A               	movwf	((___awdiv@divisor))&0ffh
  3009  0010C2  6F8D               	call	___awdiv	;wreg free
  3010  0010C4  ECA0  F00E         	movlb	0	; () banked
  3011  0010C8  0100               	btfsc	(1+?___awdiv)&0ffh,7
  3012  0010CA  BF8C               	goto	u1921
  3013  0010CC  EF70  F008         	movf	(1+?___awdiv)&0ffh,w
  3014  0010D0  518C               	bnz	u1920
  3015  0010D2  E108               	decf	(0+?___awdiv)&0ffh,w
  3016  0010D4  058B               	btfss	status,0
  3017  0010D6  A0D8               	goto	u1921
  3018  0010D8  EF70  F008         	goto	u1920
  3019  0010DC  EF72  F008         
  3020                           u1921:
  3021  0010E0                     	goto	l2388
  3022  0010E0  EFAC  F008         u1920:
  3023  0010E4                     	line	226
  3024                           	
  3025                           l2380:; BSR set to: 0
  3026  0010E4                     
  3027                           ;Problem3.c: 225:         {;Problem3.c: 226:             UART_Write('0');
  3028                           	movlw	(030h)&0ffh
  3029  0010E4  0E30               	
  3030                           	call	_UART_Write
  3031  0010E6  EC35  F013         	line	227
  3032                           ;Problem3.c: 227:             UART_Write('.');
  3033                           	movlw	(02Eh)&0ffh
  3034  0010EA  0E2E               	
  3035                           	call	_UART_Write
  3036  0010EC  EC35  F013         	line	229
  3037                           	
  3038                           l2382:
  3039  0010F0                     ;Problem3.c: 229:             c = temp/10 + '0';
  3040                           	movff	(PrintVoltage@temp),(___awdiv@dividend)
  3041  0010F0  C0C3  F08B         	movff	(PrintVoltage@temp+1),(___awdiv@dividend+1)
  3042  0010F4  C0C4  F08C         	movlw	high(0Ah)
  3043  0010F8  0E00               	movlb	0	; () banked
  3044  0010FA  0100               	movwf	((___awdiv@divisor+1))&0ffh
  3045  0010FC  6F8E               	movlw	low(0Ah)
  3046  0010FE  0E0A               	movwf	((___awdiv@divisor))&0ffh
  3047  001100  6F8D               	call	___awdiv	;wreg free
  3048  001102  ECA0  F00E         	movlb	0	; () banked
  3049  001106  0100               	movf	(0+?___awdiv)&0ffh,w
  3050  001108  518B               	addlw	low(030h)
  3051  00110A  0F30               	movwf	((PrintVoltage@c))&0ffh
  3052  00110C  6FC2               	line	230
  3053                           	
  3054                           l2384:; BSR set to: 0
  3055  00110E                     
  3056                           ;Problem3.c: 230:             temp = temp - temp/10*10;
  3057                           	movlw	high(0Ah)
  3058  00110E  0E00               	movwf	((___awdiv@divisor+1))&0ffh
  3059  001110  6F8E               	movlw	low(0Ah)
  3060  001112  0E0A               	movwf	((___awdiv@divisor))&0ffh
  3061  001114  6F8D               	movff	(PrintVoltage@temp),(___awdiv@dividend)
  3062  001116  C0C3  F08B         	movff	(PrintVoltage@temp+1),(___awdiv@dividend+1)
  3063  00111A  C0C4  F08C         	call	___awdiv	;wreg free
  3064  00111E  ECA0  F00E         	movff	0+?___awdiv,(___wmul@multiplier)
  3065  001122  C08B  F093         	movff	1+?___awdiv,(___wmul@multiplier+1)
  3066  001126  C08C  F094         	movlw	high(0Ah)
  3067  00112A  0E00               	movlb	0	; () banked
  3068  00112C  0100               	movwf	((___wmul@multiplicand+1))&0ffh
  3069  00112E  6F96               	movlw	low(0Ah)
  3070  001130  0E0A               	movwf	((___wmul@multiplicand))&0ffh
  3071  001132  6F95               	call	___wmul	;wreg free
  3072  001134  ECD1  F012         	movlb	0	; () banked
  3073  001138  0100               	comf	(0+?___wmul)&0ffh
  3074  00113A  1F93               	comf	(1+?___wmul)&0ffh
  3075  00113C  1F94               	infsnz	(0+?___wmul)&0ffh
  3076  00113E  4B93               	incf	(1+?___wmul)&0ffh
  3077  001140  2B94               	movf	((PrintVoltage@temp))&0ffh,w
  3078  001142  51C3               	addwf	(0+?___wmul)&0ffh,w
  3079  001144  2593               	movwf	((PrintVoltage@temp))&0ffh
  3080  001146  6FC3               	movf	((PrintVoltage@temp+1))&0ffh,w
  3081  001148  51C4               	addwfc	(1+?___wmul)&0ffh,w
  3082  00114A  2194               	movwf	1+((PrintVoltage@temp))&0ffh
  3083  00114C  6FC4               	line	231
  3084                           	
  3085                           l2386:; BSR set to: 0
  3086  00114E                     
  3087                           ;Problem3.c: 231:             UART_Write(c);
  3088                           	movf	((PrintVoltage@c))&0ffh,w
  3089  00114E  51C2               	
  3090                           	call	_UART_Write
  3091  001150  EC35  F013         	line	232
  3092                           ;Problem3.c: 232:         }
  3093                           	goto	l2390
  3094  001154  EFB9  F008         	line	233
  3095                           ;Problem3.c: 233:         else
  3096                           	
  3097                           l165:
  3098  001158                     	line	235
  3099                           	
  3100                           l2388:
  3101  001158                     ;Problem3.c: 234:         {;Problem3.c: 235:             UART_Write('0');
  3102                           	movlw	(030h)&0ffh
  3103  001158  0E30               	
  3104                           	call	_UART_Write
  3105  00115A  EC35  F013         	line	236
  3106                           ;Problem3.c: 236:             UART_Write('.');
  3107                           	movlw	(02Eh)&0ffh
  3108  00115E  0E2E               	
  3109                           	call	_UART_Write
  3110  001160  EC35  F013         	line	237
  3111                           ;Problem3.c: 237:             UART_Write('0');
  3112                           	movlw	(030h)&0ffh
  3113  001164  0E30               	
  3114                           	call	_UART_Write
  3115  001166  EC35  F013         	goto	l2390
  3116  00116A  EFB9  F008         	line	238
  3117                           ;Problem3.c: 238:         }
  3118                           	
  3119                           l166:
  3120  00116E                     	goto	l2390
  3121  00116E  EFB9  F008         	
  3122                           l164:
  3123  001172                     	line	240
  3124                           	
  3125                           l2390:
  3126  001172                     ;Problem3.c: 240:         c = temp + '0';
  3127                           	movlb	0	; () banked
  3128  001172  0100               	movf	((PrintVoltage@temp))&0ffh,w
  3129  001174  51C3               	addlw	low(030h)
  3130  001176  0F30               	movwf	((PrintVoltage@c))&0ffh
  3131  001178  6FC2               	line	241
  3132                           	
  3133                           l2392:; BSR set to: 0
  3134  00117A                     
  3135                           ;Problem3.c: 241:         UART_Write(c);
  3136                           	movf	((PrintVoltage@c))&0ffh,w
  3137  00117A  51C2               	
  3138                           	call	_UART_Write
  3139  00117C  EC35  F013         	line	245
  3140                           	
  3141                           l167:
  3142  001180                     	return	;funcret
  3143  001180  0012               	opt stack 0
  3144                           GLOBAL	__end_of_PrintVoltage
  3145                           	__end_of_PrintVoltage:
  3146  001182                     	signat	_PrintVoltage,4217
  3147                           	global	___xxtofl
  3148                           
  3149 ;; *************** function ___xxtofl *****************
  3150 ;; Defined at:
  3151 ;;		line 10 in file "C:\Program Files (x86)\Microchip\xc8\v2.00\pic\sources\c99\common\xxtofl.c"
  3152 ;; Parameters:    Size  Location     Type
  3153 ;;  sign            1    wreg     unsigned char 
  3154 ;;  val             4   11[BANK0 ] long 
  3155 ;; Auto vars:     Size  Location     Type
  3156 ;;  sign            1   19[BANK0 ] unsigned char 
  3157 ;;  arg             4   21[BANK0 ] unsigned long 
  3158 ;;  exp             1   20[BANK0 ] unsigned char 
  3159 ;; Return value:  Size  Location     Type
  3160 ;;                  4   11[BANK0 ] unsigned char 
  3161 ;; Registers used:
  3162 ;;		wreg, status,2, status,0
  3163 ;; Tracked objects:
  3164 ;;		On entry : 0/0
  3165 ;;		On exit  : 0/0
  3166 ;;		Unchanged: 0/0
  3167 ;; Data sizes:     COMRAM   BANK0   BANK1   BANK2   BANK3   BANK4   BANK5
  3168 ;;      Params:         0       4       0       0       0       0       0
  3169 ;;      Locals:         0       6       0       0       0       0       0
  3170 ;;      Temps:          0       4       0       0       0       0       0
  3171 ;;      Totals:         0      14       0       0       0       0       0
  3172 ;;Total ram usage:       14 bytes
  3173 ;; Hardware stack levels used:    1
  3174 ;; Hardware stack levels required when called:    6
  3175 ;; This function calls:
  3176 ;;		Nothing
  3177 ;; This function is called by:
  3178 ;;		_PrintVoltage
  3179 ;; This function uses a non-reentrant model
  3180 ;;
  3181                           psect	text9,class=CODE,space=0,reloc=2,group=1
  3182                           	file	"C:\Program Files (x86)\Microchip\xc8\v2.00\pic\sources\c99\common\xxtofl.c"
  3183                           	line	10
  3184                           global __ptext9
  3185                           __ptext9:
  3186  0013DA                     psect	text9
  3187                           	file	"C:\Program Files (x86)\Microchip\xc8\v2.00\pic\sources\c99\common\xxtofl.c"
  3188                           	line	10
  3189                           	global	__size_of___xxtofl
  3190                           	__size_of___xxtofl	equ	__end_of___xxtofl-___xxtofl
  3191  0000                     	
  3192                           ___xxtofl:
  3193  0013DA                     ;incstack = 0
  3194                           	opt	stack 22
  3195                           ;___xxtofl@sign stored from wreg
  3196                           	movlb	0	; () banked
  3197  0013DA  0100               	movwf	((___xxtofl@sign))&0ffh
  3198  0013DC  6F93               	line	15
  3199                           	
  3200                           l2242:
  3201  0013DE                     	movlb	0	; () banked
  3202  0013DE  0100               	movf	((___xxtofl@sign))&0ffh,w
  3203  0013E0  5193               	btfsc	status,2
  3204  0013E2  B4D8               	goto	u1781
  3205  0013E4  EFF6  F009         	goto	u1780
  3206  0013E8  EFF8  F009         u1781:
  3207  0013EC                     	goto	l895
  3208  0013EC  EF1A  F00A         u1780:
  3209  0013F0                     	
  3210                           l2244:; BSR set to: 0
  3211  0013F0                     
  3212                           	btfsc	((___xxtofl@val+3))&0ffh,7
  3213  0013F0  BF8E               	goto	u1790
  3214  0013F2  EFFF  F009         	goto	u1791
  3215  0013F6  EFFD  F009         
  3216                           u1791:
  3217  0013FA                     	goto	l895
  3218  0013FA  EF1A  F00A         u1790:
  3219  0013FE                     	line	16
  3220                           	
  3221                           l2246:; BSR set to: 0
  3222  0013FE                     
  3223                           	movff	(___xxtofl@val),??___xxtofl+0+0
  3224  0013FE  C08B  F08F         	movff	(___xxtofl@val+1),??___xxtofl+0+0+1
  3225  001402  C08C  F090         	movff	(___xxtofl@val+2),??___xxtofl+0+0+2
  3226  001406  C08D  F091         	movff	(___xxtofl@val+3),??___xxtofl+0+0+3
  3227  00140A  C08E  F092         	comf	(??___xxtofl+0+0)&0ffh
  3228  00140E  1F8F               	comf	(??___xxtofl+0+1)&0ffh
  3229  001410  1F90               	comf	(??___xxtofl+0+2)&0ffh
  3230  001412  1F91               	comf	(??___xxtofl+0+3)&0ffh
  3231  001414  1F92               	incf	(??___xxtofl+0+0)&0ffh
  3232  001416  2B8F               	movlw	0
  3233  001418  0E00               	addwfc	(??___xxtofl+0+1)&0ffh
  3234  00141A  2390               	addwfc	(??___xxtofl+0+2)&0ffh
  3235  00141C  2391               	addwfc	(??___xxtofl+0+3)&0ffh
  3236  00141E  2392               	movff	??___xxtofl+0+0,(___xxtofl@arg)
  3237  001420  C08F  F095         	movff	??___xxtofl+0+1,(___xxtofl@arg+1)
  3238  001424  C090  F096         	movff	??___xxtofl+0+2,(___xxtofl@arg+2)
  3239  001428  C091  F097         	movff	??___xxtofl+0+3,(___xxtofl@arg+3)
  3240  00142C  C092  F098         	line	17
  3241                           	goto	l2248
  3242  001430  EF24  F00A         	line	18
  3243                           	
  3244                           l895:; BSR set to: 0
  3245  001434                     
  3246                           	line	19
  3247                           	movff	(___xxtofl@val),(___xxtofl@arg)
  3248  001434  C08B  F095         	movff	(___xxtofl@val+1),(___xxtofl@arg+1)
  3249  001438  C08C  F096         	movff	(___xxtofl@val+2),(___xxtofl@arg+2)
  3250  00143C  C08D  F097         	movff	(___xxtofl@val+3),(___xxtofl@arg+3)
  3251  001440  C08E  F098         	goto	l2248
  3252  001444  EF24  F00A         	line	20
  3253                           	
  3254                           l896:; BSR set to: 0
  3255  001448                     
  3256                           	line	21
  3257                           	
  3258                           l2248:; BSR set to: 0
  3259  001448                     
  3260                           	movf	((___xxtofl@val))&0ffh,w
  3261  001448  518B               iorwf	((___xxtofl@val+1))&0ffh,w
  3262  00144A  118C               iorwf	((___xxtofl@val+2))&0ffh,w
  3263  00144C  118D               iorwf	((___xxtofl@val+3))&0ffh,w
  3264  00144E  118E               	btfss	status,2
  3265  001450  A4D8               	goto	u1801
  3266  001452  EF2D  F00A         	goto	u1800
  3267  001456  EF2F  F00A         
  3268                           u1801:
  3269  00145A                     	goto	l2254
  3270  00145A  EF3B  F00A         u1800:
  3271  00145E                     	line	22
  3272                           	
  3273                           l2250:; BSR set to: 0
  3274  00145E                     
  3275                           	movlw	low(normalize32(0x0))
  3276  00145E  0E00               	movwf	((?___xxtofl))&0ffh
  3277  001460  6F8B               	movlw	high(normalize32(0x0))
  3278  001462  0E00               	movwf	((?___xxtofl+1))&0ffh
  3279  001464  6F8C               	movlw	low highword(normalize32(0x0))
  3280  001466  0E00               	movwf	((?___xxtofl+2))&0ffh
  3281  001468  6F8D               	movlw	high highword(normalize32(0x0))
  3282  00146A  0E00               	movwf	((?___xxtofl+3))&0ffh
  3283  00146C  6F8E               	goto	l898
  3284  00146E  EFDC  F00A         	
  3285                           l2252:; BSR set to: 0
  3286  001472                     
  3287                           	goto	l898
  3288  001472  EFDC  F00A         	
  3289                           l897:; BSR set to: 0
  3290  001476                     
  3291                           	line	23
  3292                           	
  3293                           l2254:; BSR set to: 0
  3294  001476                     
  3295                           	movlw	low(096h)
  3296  001476  0E96               	movwf	((___xxtofl@exp))&0ffh
  3297  001478  6F94               	line	24
  3298                           	goto	l2258
  3299  00147A  EF47  F00A         	
  3300                           l900:; BSR set to: 0
  3301  00147E                     
  3302                           	line	25
  3303                           	
  3304                           l2256:; BSR set to: 0
  3305  00147E                     
  3306                           	incf	((___xxtofl@exp))&0ffh
  3307  00147E  2B94               	line	26
  3308                           	bcf	status,0
  3309  001480  90D8               	rrcf	((___xxtofl@arg+3))&0ffh
  3310  001482  3398               	rrcf	((___xxtofl@arg+2))&0ffh
  3311  001484  3397               	rrcf	((___xxtofl@arg+1))&0ffh
  3312  001486  3396               	rrcf	((___xxtofl@arg))&0ffh
  3313  001488  3395               	goto	l2258
  3314  00148A  EF47  F00A         	line	27
  3315                           	
  3316                           l899:; BSR set to: 0
  3317  00148E                     
  3318                           	line	24
  3319                           	
  3320                           l2258:; BSR set to: 0
  3321  00148E                     
  3322                           	movlw	0
  3323  00148E  0E00               	andwf	((___xxtofl@arg))&0ffh,w
  3324  001490  1595               	movwf	(??___xxtofl+0+0)&0ffh
  3325  001492  6F8F               	movlw	0
  3326  001494  0E00               	andwf	((___xxtofl@arg+1))&0ffh,w
  3327  001496  1596               	movwf	1+(??___xxtofl+0+0)&0ffh
  3328  001498  6F90               	
  3329                           	movlw	0
  3330  00149A  0E00               	andwf	((___xxtofl@arg+2))&0ffh,w
  3331  00149C  1597               	movwf	2+(??___xxtofl+0+0)&0ffh
  3332  00149E  6F91               	
  3333                           	movlw	0FEh
  3334  0014A0  0EFE               	andwf	((___xxtofl@arg+3))&0ffh,w
  3335  0014A2  1598               	movwf	3+(??___xxtofl+0+0)&0ffh
  3336  0014A4  6F92               	movf	(??___xxtofl+0+0)&0ffh,w
  3337  0014A6  518F               iorwf	(??___xxtofl+0+1)&0ffh,w
  3338  0014A8  1190               iorwf	(??___xxtofl+0+2)&0ffh,w
  3339  0014AA  1191               iorwf	(??___xxtofl+0+3)&0ffh,w
  3340  0014AC  1192               	btfss	status,2
  3341  0014AE  A4D8               	goto	u1811
  3342  0014B0  EF5C  F00A         	goto	u1810
  3343  0014B4  EF5E  F00A         
  3344                           u1811:
  3345  0014B8                     	goto	l2256
  3346  0014B8  EF3F  F00A         u1810:
  3347  0014BC                     	goto	l902
  3348  0014BC  EF6E  F00A         	
  3349                           l901:; BSR set to: 0
  3350  0014C0                     
  3351                           	line	28
  3352                           	goto	l902
  3353  0014C0  EF6E  F00A         	
  3354                           l903:; BSR set to: 0
  3355  0014C4                     
  3356                           	line	29
  3357                           	
  3358                           l2260:; BSR set to: 0
  3359  0014C4                     
  3360                           	incf	((___xxtofl@exp))&0ffh
  3361  0014C4  2B94               	line	30
  3362                           	
  3363                           l2262:; BSR set to: 0
  3364  0014C6                     
  3365                           	movlw	low(01h)
  3366  0014C6  0E01               	addwf	((___xxtofl@arg))&0ffh
  3367  0014C8  2795               	movlw	0
  3368  0014CA  0E00               	addwfc	((___xxtofl@arg+1))&0ffh
  3369  0014CC  2396               	addwfc	((___xxtofl@arg+2))&0ffh
  3370  0014CE  2397               	addwfc	((___xxtofl@arg+3))&0ffh
  3371  0014D0  2398               	line	31
  3372                           	
  3373                           l2264:; BSR set to: 0
  3374  0014D2                     
  3375                           	bcf	status,0
  3376  0014D2  90D8               	rrcf	((___xxtofl@arg+3))&0ffh
  3377  0014D4  3398               	rrcf	((___xxtofl@arg+2))&0ffh
  3378  0014D6  3397               	rrcf	((___xxtofl@arg+1))&0ffh
  3379  0014D8  3396               	rrcf	((___xxtofl@arg))&0ffh
  3380  0014DA  3395               	line	32
  3381                           	
  3382                           l902:; BSR set to: 0
  3383  0014DC                     
  3384                           	line	28
  3385                           	movlw	0
  3386  0014DC  0E00               	andwf	((___xxtofl@arg))&0ffh,w
  3387  0014DE  1595               	movwf	(??___xxtofl+0+0)&0ffh
  3388  0014E0  6F8F               	movlw	0
  3389  0014E2  0E00               	andwf	((___xxtofl@arg+1))&0ffh,w
  3390  0014E4  1596               	movwf	1+(??___xxtofl+0+0)&0ffh
  3391  0014E6  6F90               	
  3392                           	movlw	0
  3393  0014E8  0E00               	andwf	((___xxtofl@arg+2))&0ffh,w
  3394  0014EA  1597               	movwf	2+(??___xxtofl+0+0)&0ffh
  3395  0014EC  6F91               	
  3396                           	movlw	0FFh
  3397  0014EE  0EFF               	andwf	((___xxtofl@arg+3))&0ffh,w
  3398  0014F0  1598               	movwf	3+(??___xxtofl+0+0)&0ffh
  3399  0014F2  6F92               	movf	(??___xxtofl+0+0)&0ffh,w
  3400  0014F4  518F               iorwf	(??___xxtofl+0+1)&0ffh,w
  3401  0014F6  1190               iorwf	(??___xxtofl+0+2)&0ffh,w
  3402  0014F8  1191               iorwf	(??___xxtofl+0+3)&0ffh,w
  3403  0014FA  1192               	btfss	status,2
  3404  0014FC  A4D8               	goto	u1821
  3405  0014FE  EF83  F00A         	goto	u1820
  3406  001502  EF85  F00A         
  3407                           u1821:
  3408  001506                     	goto	l2260
  3409  001506  EF62  F00A         u1820:
  3410  00150A                     	goto	l2268
  3411  00150A  EF91  F00A         	
  3412                           l904:; BSR set to: 0
  3413  00150E                     
  3414                           	line	33
  3415                           	goto	l2268
  3416  00150E  EF91  F00A         	
  3417                           l906:; BSR set to: 0
  3418  001512                     
  3419                           	line	34
  3420                           	
  3421                           l2266:; BSR set to: 0
  3422  001512                     
  3423                           	decf	((___xxtofl@exp))&0ffh
  3424  001512  0794               	line	35
  3425                           	bcf	status,0
  3426  001514  90D8               	rlcf	((___xxtofl@arg))&0ffh
  3427  001516  3795               	rlcf	((___xxtofl@arg+1))&0ffh
  3428  001518  3796               	rlcf	((___xxtofl@arg+2))&0ffh
  3429  00151A  3797               	rlcf	((___xxtofl@arg+3))&0ffh
  3430  00151C  3798               	goto	l2268
  3431  00151E  EF91  F00A         	line	36
  3432                           	
  3433                           l905:; BSR set to: 0
  3434  001522                     
  3435                           	line	33
  3436                           	
  3437                           l2268:; BSR set to: 0
  3438  001522                     
  3439                           	
  3440                           	btfsc	((___xxtofl@arg+2))&0ffh,(23)&7
  3441  001522  BF97               	goto	u1831
  3442  001524  EF96  F00A         	goto	u1830
  3443  001528  EF98  F00A         u1831:
  3444  00152C                     	goto	l909
  3445  00152C  EFA2  F00A         u1830:
  3446  001530                     	
  3447                           l2270:; BSR set to: 0
  3448  001530                     
  3449                           		movlw	02h-0
  3450  001530  0E02               	cpfslt	((___xxtofl@exp))&0ffh
  3451  001532  6194               	goto	u1841
  3452  001534  EF9E  F00A         	goto	u1840
  3453  001538  EFA0  F00A         
  3454                           u1841:
  3455  00153C                     	goto	l2266
  3456  00153C  EF89  F00A         u1840:
  3457  001540                     	goto	l909
  3458  001540  EFA2  F00A         	
  3459                           l908:; BSR set to: 0
  3460  001544                     
  3461                           	
  3462                           l909:; BSR set to: 0
  3463  001544                     
  3464                           	line	37
  3465                           	
  3466                           	btfsc	((___xxtofl@exp))&0ffh,(0)&7
  3467  001544  B194               	goto	u1851
  3468  001546  EFA7  F00A         	goto	u1850
  3469  00154A  EFA9  F00A         u1851:
  3470  00154E                     	goto	l2274
  3471  00154E  EFAC  F00A         u1850:
  3472  001552                     	line	38
  3473                           	
  3474                           l2272:; BSR set to: 0
  3475  001552                     
  3476                           	bcf	(0+(23/8)+(___xxtofl@arg))&0ffh,(23)&7
  3477  001552  9F97               	goto	l2274
  3478  001554  EFAC  F00A         	
  3479                           l910:; BSR set to: 0
  3480  001558                     
  3481                           	line	39
  3482                           	
  3483                           l2274:; BSR set to: 0
  3484  001558                     
  3485                           	bcf status,0
  3486  001558  90D8               	rrcf	((___xxtofl@exp))&0ffh
  3487  00155A  3394               
  3488                           	line	40
  3489                           	
  3490                           l2276:; BSR set to: 0
  3491  00155C                     
  3492                           	movff	(___xxtofl@exp),??___xxtofl+0+0
  3493  00155C  C094  F08F         	clrf	(??___xxtofl+0+0+1)&0ffh
  3494  001560  6B90               	clrf	(??___xxtofl+0+0+2)&0ffh
  3495  001562  6B91               	clrf	(??___xxtofl+0+0+3)&0ffh
  3496  001564  6B92               	movff	??___xxtofl+0+0,??___xxtofl+0+3
  3497  001566  C08F  F092         	clrf	(??___xxtofl+0+2)&0ffh
  3498  00156A  6B91               	clrf	(??___xxtofl+0+1)&0ffh
  3499  00156C  6B90               	clrf	(??___xxtofl+0+0)&0ffh
  3500  00156E  6B8F               	movf	(??___xxtofl+0+0)&0ffh,w
  3501  001570  518F               	iorwf	((___xxtofl@arg))&0ffh
  3502  001572  1395               	movf	(??___xxtofl+0+1)&0ffh,w
  3503  001574  5190               	iorwf	((___xxtofl@arg+1))&0ffh
  3504  001576  1396               	movf	(??___xxtofl+0+2)&0ffh,w
  3505  001578  5191               	iorwf	((___xxtofl@arg+2))&0ffh
  3506  00157A  1397               	movf	(??___xxtofl+0+3)&0ffh,w
  3507  00157C  5192               	iorwf	((___xxtofl@arg+3))&0ffh
  3508  00157E  1398               
  3509                           	line	41
  3510                           	
  3511                           l2278:; BSR set to: 0
  3512  001580                     
  3513                           	movf	((___xxtofl@sign))&0ffh,w
  3514  001580  5193               	btfsc	status,2
  3515  001582  B4D8               	goto	u1861
  3516  001584  EFC6  F00A         	goto	u1860
  3517  001588  EFC8  F00A         u1861:
  3518  00158C                     	goto	l2284
  3519  00158C  EFD2  F00A         u1860:
  3520  001590                     	
  3521                           l2280:; BSR set to: 0
  3522  001590                     
  3523                           	btfsc	((___xxtofl@val+3))&0ffh,7
  3524  001590  BF8E               	goto	u1870
  3525  001592  EFCF  F00A         	goto	u1871
  3526  001596  EFCD  F00A         
  3527                           u1871:
  3528  00159A                     	goto	l2284
  3529  00159A  EFD2  F00A         u1870:
  3530  00159E                     	line	42
  3531                           	
  3532                           l2282:; BSR set to: 0
  3533  00159E                     
  3534                           	bsf	(0+(31/8)+(___xxtofl@arg))&0ffh,(31)&7
  3535  00159E  8F98               	goto	l2284
  3536  0015A0  EFD2  F00A         	
  3537                           l911:; BSR set to: 0
  3538  0015A4                     
  3539                           	line	43
  3540                           	
  3541                           l2284:; BSR set to: 0
  3542  0015A4                     
  3543                           	movff	(___xxtofl@arg),(?___xxtofl)
  3544  0015A4  C095  F08B         	movff	(___xxtofl@arg+1),(?___xxtofl+1)
  3545  0015A8  C096  F08C         	movff	(___xxtofl@arg+2),(?___xxtofl+2)
  3546  0015AC  C097  F08D         	movff	(___xxtofl@arg+3),(?___xxtofl+3)
  3547  0015B0  C098  F08E         	goto	l898
  3548  0015B4  EFDC  F00A         	
  3549                           l2286:; BSR set to: 0
  3550  0015B8                     
  3551                           	line	44
  3552                           	
  3553                           l898:; BSR set to: 0
  3554  0015B8                     
  3555                           	return	;funcret
  3556  0015B8  0012               	opt stack 0
  3557                           GLOBAL	__end_of___xxtofl
  3558                           	__end_of___xxtofl:
  3559  0015BA                     	signat	___xxtofl,8316
  3560                           	global	___wmul
  3561                           
  3562 ;; *************** function ___wmul *****************
  3563 ;; Defined at:
  3564 ;;		line 15 in file "C:\Program Files (x86)\Microchip\xc8\v2.00\pic\sources\c99\common\Umul16.c"
  3565 ;; Parameters:    Size  Location     Type
  3566 ;;  multiplier      2   19[BANK0 ] unsigned int 
  3567 ;;  multiplicand    2   21[BANK0 ] unsigned int 
  3568 ;; Auto vars:     Size  Location     Type
  3569 ;;  product         2   23[BANK0 ] unsigned int 
  3570 ;; Return value:  Size  Location     Type
  3571 ;;                  2   19[BANK0 ] unsigned int 
  3572 ;; Registers used:
  3573 ;;		wreg, status,2, status,0, prodl, prodh
  3574 ;; Tracked objects:
  3575 ;;		On entry : 0/0
  3576 ;;		On exit  : 0/0
  3577 ;;		Unchanged: 0/0
  3578 ;; Data sizes:     COMRAM   BANK0   BANK1   BANK2   BANK3   BANK4   BANK5
  3579 ;;      Params:         0       4       0       0       0       0       0
  3580 ;;      Locals:         0       2       0       0       0       0       0
  3581 ;;      Temps:          0       0       0       0       0       0       0
  3582 ;;      Totals:         0       6       0       0       0       0       0
  3583 ;;Total ram usage:        6 bytes
  3584 ;; Hardware stack levels used:    1
  3585 ;; Hardware stack levels required when called:    6
  3586 ;; This function calls:
  3587 ;;		Nothing
  3588 ;; This function is called by:
  3589 ;;		_PrintVoltage
  3590 ;; This function uses a non-reentrant model
  3591 ;;
  3592                           psect	text10,class=CODE,space=0,reloc=2,group=1
  3593                           	file	"C:\Program Files (x86)\Microchip\xc8\v2.00\pic\sources\c99\common\Umul16.c"
  3594                           	line	15
  3595                           global __ptext10
  3596                           __ptext10:
  3597  0025A2                     psect	text10
  3598                           	file	"C:\Program Files (x86)\Microchip\xc8\v2.00\pic\sources\c99\common\Umul16.c"
  3599                           	line	15
  3600                           	global	__size_of___wmul
  3601                           	__size_of___wmul	equ	__end_of___wmul-___wmul
  3602  0000                     	
  3603                           ___wmul:; BSR set to: 0
  3604  0025A2                     
  3605                           ;incstack = 0
  3606                           	opt	stack 22
  3607                           	line	37
  3608                           	
  3609                           l2018:
  3610  0025A2                     	movlb	0	; () banked
  3611  0025A2  0100               	movf	((___wmul@multiplier))&0ffh,w
  3612  0025A4  5193               	mulwf	((___wmul@multiplicand))&0ffh
  3613  0025A6  0395               	movff	prodl,(___wmul@product)
  3614  0025A8  CFF3 F097          	movff	prodh,(___wmul@product+1)
  3615  0025AC  CFF4 F098          	line	38
  3616                           	movf	((___wmul@multiplier))&0ffh,w
  3617  0025B0  5193               	mulwf	(0+(___wmul@multiplicand+01h))&0ffh
  3618  0025B2  0396               	movf	(prodl),c,w
  3619  0025B4  50F3               	addwf	((___wmul@product+1))&0ffh
  3620  0025B6  2798               
  3621                           	line	39
  3622                           	movf	(0+(___wmul@multiplier+01h))&0ffh,w
  3623  0025B8  5194               	mulwf	((___wmul@multiplicand))&0ffh
  3624  0025BA  0395               	movf	(prodl),c,w
  3625  0025BC  50F3               	addwf	((___wmul@product+1))&0ffh
  3626  0025BE  2798               
  3627                           	line	52
  3628                           	
  3629                           l2020:; BSR set to: 0
  3630  0025C0                     
  3631                           	movff	(___wmul@product),(?___wmul)
  3632  0025C0  C097  F093         	movff	(___wmul@product+1),(?___wmul+1)
  3633  0025C4  C098  F094         	goto	l240
  3634  0025C8  EFE6  F012         	
  3635                           l2022:; BSR set to: 0
  3636  0025CC                     
  3637                           	line	53
  3638                           	
  3639                           l240:; BSR set to: 0
  3640  0025CC                     
  3641                           	return	;funcret
  3642  0025CC  0012               	opt stack 0
  3643                           GLOBAL	__end_of___wmul
  3644                           	__end_of___wmul:
  3645  0025CE                     	signat	___wmul,8314
  3646                           	global	___fltol
  3647                           
  3648 ;; *************** function ___fltol *****************
  3649 ;; Defined at:
  3650 ;;		line 43 in file "C:\Program Files (x86)\Microchip\xc8\v2.00\pic\sources\c99\common\fltol.c"
  3651 ;; Parameters:    Size  Location     Type
  3652 ;;  f1              4   50[BANK0 ] unsigned int 
  3653 ;; Auto vars:     Size  Location     Type
  3654 ;;  exp1            1   59[BANK0 ] unsigned char 
  3655 ;;  sign1           1   58[BANK0 ] unsigned char 
  3656 ;; Return value:  Size  Location     Type
  3657 ;;                  4   50[BANK0 ] long 
  3658 ;; Registers used:
  3659 ;;		wreg, status,2, status,0
  3660 ;; Tracked objects:
  3661 ;;		On entry : 0/0
  3662 ;;		On exit  : 0/0
  3663 ;;		Unchanged: 0/0
  3664 ;; Data sizes:     COMRAM   BANK0   BANK1   BANK2   BANK3   BANK4   BANK5
  3665 ;;      Params:         0       4       0       0       0       0       0
  3666 ;;      Locals:         0       2       0       0       0       0       0
  3667 ;;      Temps:          0       4       0       0       0       0       0
  3668 ;;      Totals:         0      10       0       0       0       0       0
  3669 ;;Total ram usage:       10 bytes
  3670 ;; Hardware stack levels used:    1
  3671 ;; Hardware stack levels required when called:    6
  3672 ;; This function calls:
  3673 ;;		Nothing
  3674 ;; This function is called by:
  3675 ;;		_PrintVoltage
  3676 ;; This function uses a non-reentrant model
  3677 ;;
  3678                           psect	text11,class=CODE,space=0,reloc=2,group=1
  3679                           	file	"C:\Program Files (x86)\Microchip\xc8\v2.00\pic\sources\c99\common\fltol.c"
  3680                           	line	43
  3681                           global __ptext11
  3682                           __ptext11:
  3683  001796                     psect	text11
  3684                           	file	"C:\Program Files (x86)\Microchip\xc8\v2.00\pic\sources\c99\common\fltol.c"
  3685                           	line	43
  3686                           	global	__size_of___fltol
  3687                           	__size_of___fltol	equ	__end_of___fltol-___fltol
  3688  0000                     	
  3689                           ___fltol:; BSR set to: 0
  3690  001796                     
  3691                           ;incstack = 0
  3692                           	opt	stack 22
  3693                           	line	47
  3694                           	
  3695                           l2198:
  3696  001796                     	movlb	0	; () banked
  3697  001796  0100               	rlcf	((___fltol@f1+2))&0ffh,w
  3698  001798  35B4               	rlcf	((___fltol@f1+3))&0ffh,w
  3699  00179A  35B5               	movwf	((___fltol@exp1))&0ffh
  3700  00179C  6FBB               	movf	((___fltol@exp1))&0ffh,w
  3701  00179E  51BB               	btfss	status,2
  3702  0017A0  A4D8               	goto	u1711
  3703  0017A2  EFD5  F00B         	goto	u1710
  3704  0017A6  EFD7  F00B         u1711:
  3705  0017AA                     	goto	l2204
  3706  0017AA  EFE3  F00B         u1710:
  3707  0017AE                     	line	48
  3708                           	
  3709                           l2200:; BSR set to: 0
  3710  0017AE                     
  3711                           	movlw	low(0)
  3712  0017AE  0E00               	movwf	((?___fltol))&0ffh
  3713  0017B0  6FB2               	movlw	high(0)
  3714  0017B2  0E00               	movwf	((?___fltol+1))&0ffh
  3715  0017B4  6FB3               	movlw	low highword(0)
  3716  0017B6  0E00               	movwf	((?___fltol+2))&0ffh
  3717  0017B8  6FB4               	movlw	high highword(0)
  3718  0017BA  0E00               	movwf	((?___fltol+3))&0ffh
  3719  0017BC  6FB5               	goto	l537
  3720  0017BE  EF74  F00C         	
  3721                           l2202:; BSR set to: 0
  3722  0017C2                     
  3723                           	goto	l537
  3724  0017C2  EF74  F00C         	
  3725                           l536:; BSR set to: 0
  3726  0017C6                     
  3727                           	line	49
  3728                           	
  3729                           l2204:; BSR set to: 0
  3730  0017C6                     
  3731                           	movff	(___fltol@f1),??___fltol+0+0
  3732  0017C6  C0B2  F0B6         	movff	(___fltol@f1+1),??___fltol+0+0+1
  3733  0017CA  C0B3  F0B7         	movff	(___fltol@f1+2),??___fltol+0+0+2
  3734  0017CE  C0B4  F0B8         	movff	(___fltol@f1+3),??___fltol+0+0+3
  3735  0017D2  C0B5  F0B9         	movlw	01Fh+1
  3736  0017D6  0E20               	goto	u1720
  3737  0017D8  EFF3  F00B         u1725:
  3738  0017DC                     	bcf	status,0
  3739  0017DC  90D8               	rrcf	(??___fltol+0+3)&0ffh
  3740  0017DE  33B9               	rrcf	(??___fltol+0+2)&0ffh
  3741  0017E0  33B8               	rrcf	(??___fltol+0+1)&0ffh
  3742  0017E2  33B7               	rrcf	(??___fltol+0+0)&0ffh
  3743  0017E4  33B6               u1720:
  3744  0017E6                     	decfsz	wreg
  3745  0017E6  2EE8               	goto	u1725
  3746  0017E8  EFEE  F00B         	movf	(??___fltol+0+0)&0ffh,w
  3747  0017EC  51B6               	movwf	((___fltol@sign1))&0ffh
  3748  0017EE  6FBA               	line	50
  3749                           	
  3750                           l2206:; BSR set to: 0
  3751  0017F0                     
  3752                           	bsf	(0+(23/8)+(___fltol@f1))&0ffh,(23)&7
  3753  0017F0  8FB4               	line	51
  3754                           	
  3755                           l2208:; BSR set to: 0
  3756  0017F2                     
  3757                           	movlw	0FFh
  3758  0017F2  0EFF               	andwf	((___fltol@f1))&0ffh
  3759  0017F4  17B2               	movlw	0FFh
  3760  0017F6  0EFF               	andwf	((___fltol@f1+1))&0ffh
  3761  0017F8  17B3               	movlw	0FFh
  3762  0017FA  0EFF               	andwf	((___fltol@f1+2))&0ffh
  3763  0017FC  17B4               	movlw	0
  3764  0017FE  0E00               	andwf	((___fltol@f1+3))&0ffh
  3765  001800  17B5               	line	52
  3766                           	
  3767                           l2210:; BSR set to: 0
  3768  001802                     
  3769                           	movlw	(096h)&0ffh
  3770  001802  0E96               	subwf	((___fltol@exp1))&0ffh
  3771  001804  5FBB               	line	53
  3772                           	
  3773                           l2212:; BSR set to: 0
  3774  001806                     
  3775                           	btfsc	((___fltol@exp1))&0ffh,7
  3776  001806  BFBB               	goto	u1730
  3777  001808  EF0A  F00C         	goto	u1731
  3778  00180C  EF08  F00C         
  3779                           u1731:
  3780  001810                     	goto	l2224
  3781  001810  EF2E  F00C         u1730:
  3782  001814                     	line	54
  3783                           	
  3784                           l2214:; BSR set to: 0
  3785  001814                     
  3786                           		movf	((___fltol@exp1))&0ffh,w
  3787  001814  51BB               	xorlw	80h
  3788  001816  0A80               	addlw	-(80h^-23)
  3789  001818  0F97               	btfsc	status,0
  3790  00181A  B0D8               	goto	u1741
  3791  00181C  EF12  F00C         	goto	u1740
  3792  001820  EF14  F00C         
  3793                           u1741:
  3794  001824                     	goto	l2220
  3795  001824  EF22  F00C         u1740:
  3796  001828                     	line	55
  3797                           	
  3798                           l2216:; BSR set to: 0
  3799  001828                     
  3800                           	movlw	low(0)
  3801  001828  0E00               	movwf	((?___fltol))&0ffh
  3802  00182A  6FB2               	movlw	high(0)
  3803  00182C  0E00               	movwf	((?___fltol+1))&0ffh
  3804  00182E  6FB3               	movlw	low highword(0)
  3805  001830  0E00               	movwf	((?___fltol+2))&0ffh
  3806  001832  6FB4               	movlw	high highword(0)
  3807  001834  0E00               	movwf	((?___fltol+3))&0ffh
  3808  001836  6FB5               	goto	l537
  3809  001838  EF74  F00C         	
  3810                           l2218:; BSR set to: 0
  3811  00183C                     
  3812                           	goto	l537
  3813  00183C  EF74  F00C         	
  3814                           l539:; BSR set to: 0
  3815  001840                     
  3816                           	goto	l2220
  3817  001840  EF22  F00C         	line	56
  3818                           	
  3819                           l540:; BSR set to: 0
  3820  001844                     
  3821                           	line	57
  3822                           	
  3823                           l2220:; BSR set to: 0
  3824  001844                     
  3825                           	bcf	status,0
  3826  001844  90D8               	rrcf	((___fltol@f1+3))&0ffh
  3827  001846  33B5               	rrcf	((___fltol@f1+2))&0ffh
  3828  001848  33B4               	rrcf	((___fltol@f1+1))&0ffh
  3829  00184A  33B3               	rrcf	((___fltol@f1))&0ffh
  3830  00184C  33B2               	
  3831                           l2222:; BSR set to: 0
  3832  00184E                     
  3833                           	incfsz	((___fltol@exp1))&0ffh
  3834  00184E  3FBB               	
  3835                           	goto	l2220
  3836  001850  EF22  F00C         	goto	l2234
  3837  001854  EF58  F00C         	
  3838                           l541:; BSR set to: 0
  3839  001858                     
  3840                           	line	59
  3841                           	goto	l2234
  3842  001858  EF58  F00C         	
  3843                           l538:; BSR set to: 0
  3844  00185C                     
  3845                           	line	60
  3846                           	
  3847                           l2224:; BSR set to: 0
  3848  00185C                     
  3849                           		movlw	020h-1
  3850  00185C  0E1F               	cpfsgt	((___fltol@exp1))&0ffh
  3851  00185E  65BB               	goto	u1751
  3852  001860  EF34  F00C         	goto	u1750
  3853  001864  EF36  F00C         
  3854                           u1751:
  3855  001868                     	goto	l2232
  3856  001868  EF4C  F00C         u1750:
  3857  00186C                     	line	61
  3858                           	
  3859                           l2226:; BSR set to: 0
  3860  00186C                     
  3861                           	movlw	low(0)
  3862  00186C  0E00               	movwf	((?___fltol))&0ffh
  3863  00186E  6FB2               	movlw	high(0)
  3864  001870  0E00               	movwf	((?___fltol+1))&0ffh
  3865  001872  6FB3               	movlw	low highword(0)
  3866  001874  0E00               	movwf	((?___fltol+2))&0ffh
  3867  001876  6FB4               	movlw	high highword(0)
  3868  001878  0E00               	movwf	((?___fltol+3))&0ffh
  3869  00187A  6FB5               	goto	l537
  3870  00187C  EF74  F00C         	
  3871                           l2228:; BSR set to: 0
  3872  001880                     
  3873                           	goto	l537
  3874  001880  EF74  F00C         	
  3875                           l543:; BSR set to: 0
  3876  001884                     
  3877                           	line	62
  3878                           	goto	l2232
  3879  001884  EF4C  F00C         	
  3880                           l545:; BSR set to: 0
  3881  001888                     
  3882                           	line	63
  3883                           	
  3884                           l2230:; BSR set to: 0
  3885  001888                     
  3886                           	bcf	status,0
  3887  001888  90D8               	rlcf	((___fltol@f1))&0ffh
  3888  00188A  37B2               	rlcf	((___fltol@f1+1))&0ffh
  3889  00188C  37B3               	rlcf	((___fltol@f1+2))&0ffh
  3890  00188E  37B4               	rlcf	((___fltol@f1+3))&0ffh
  3891  001890  37B5               	line	64
  3892                           	decf	((___fltol@exp1))&0ffh
  3893  001892  07BB               	goto	l2232
  3894  001894  EF4C  F00C         	line	65
  3895                           	
  3896                           l544:; BSR set to: 0
  3897  001898                     
  3898                           	line	62
  3899                           	
  3900                           l2232:; BSR set to: 0
  3901  001898                     
  3902                           	movf	((___fltol@exp1))&0ffh,w
  3903  001898  51BB               	btfss	status,2
  3904  00189A  A4D8               	goto	u1761
  3905  00189C  EF52  F00C         	goto	u1760
  3906  0018A0  EF54  F00C         u1761:
  3907  0018A4                     	goto	l2230
  3908  0018A4  EF44  F00C         u1760:
  3909  0018A8                     	goto	l2234
  3910  0018A8  EF58  F00C         	
  3911                           l546:; BSR set to: 0
  3912  0018AC                     
  3913                           	goto	l2234
  3914  0018AC  EF58  F00C         	line	66
  3915                           	
  3916                           l542:; BSR set to: 0
  3917  0018B0                     
  3918                           	line	67
  3919                           	
  3920                           l2234:; BSR set to: 0
  3921  0018B0                     
  3922                           	movf	((___fltol@sign1))&0ffh,w
  3923  0018B0  51BA               	btfsc	status,2
  3924  0018B2  B4D8               	goto	u1771
  3925  0018B4  EF5E  F00C         	goto	u1770
  3926  0018B8  EF60  F00C         u1771:
  3927  0018BC                     	goto	l2238
  3928  0018BC  EF6A  F00C         u1770:
  3929  0018C0                     	line	68
  3930                           	
  3931                           l2236:; BSR set to: 0
  3932  0018C0                     
  3933                           	comf	((___fltol@f1+3))&0ffh
  3934  0018C0  1FB5               	comf	((___fltol@f1+2))&0ffh
  3935  0018C2  1FB4               	comf	((___fltol@f1+1))&0ffh
  3936  0018C4  1FB3               	negf	((___fltol@f1))&0ffh
  3937  0018C6  6DB2               	movlw	0
  3938  0018C8  0E00               	addwfc	((___fltol@f1+1))&0ffh
  3939  0018CA  23B3               	addwfc	((___fltol@f1+2))&0ffh
  3940  0018CC  23B4               	addwfc	((___fltol@f1+3))&0ffh
  3941  0018CE  23B5               	goto	l2238
  3942  0018D0  EF6A  F00C         	
  3943                           l547:; BSR set to: 0
  3944  0018D4                     
  3945                           	line	69
  3946                           	
  3947                           l2238:; BSR set to: 0
  3948  0018D4                     
  3949                           	movff	(___fltol@f1),(?___fltol)
  3950  0018D4  C0B2  F0B2         	movff	(___fltol@f1+1),(?___fltol+1)
  3951  0018D8  C0B3  F0B3         	movff	(___fltol@f1+2),(?___fltol+2)
  3952  0018DC  C0B4  F0B4         	movff	(___fltol@f1+3),(?___fltol+3)
  3953  0018E0  C0B5  F0B5         	goto	l537
  3954  0018E4  EF74  F00C         	
  3955                           l2240:; BSR set to: 0
  3956  0018E8                     
  3957                           	line	70
  3958                           	
  3959                           l537:; BSR set to: 0
  3960  0018E8                     
  3961                           	return	;funcret
  3962  0018E8  0012               	opt stack 0
  3963                           GLOBAL	__end_of___fltol
  3964                           	__end_of___fltol:
  3965  0018EA                     	signat	___fltol,4220
  3966                           	global	___flmul
  3967                           
  3968 ;; *************** function ___flmul *****************
  3969 ;; Defined at:
  3970 ;;		line 8 in file "C:\Program Files (x86)\Microchip\xc8\v2.00\pic\sources\c99\common\sprcmul.c"
  3971 ;; Parameters:    Size  Location     Type
  3972 ;;  b               4   25[BANK0 ] long 
  3973 ;;  a               4   29[BANK0 ] long 
  3974 ;; Auto vars:     Size  Location     Type
  3975 ;;  prod            4   44[BANK0 ] struct .
  3976 ;;  grs             4   38[BANK0 ] unsigned long 
  3977 ;;  temp            2   48[BANK0 ] struct .
  3978 ;;  bexp            1   43[BANK0 ] unsigned char 
  3979 ;;  aexp            1   42[BANK0 ] unsigned char 
  3980 ;;  sign            1   37[BANK0 ] unsigned char 
  3981 ;; Return value:  Size  Location     Type
  3982 ;;                  4   25[BANK0 ] unsigned char 
  3983 ;; Registers used:
  3984 ;;		wreg, status,2, status,0, prodl, prodh
  3985 ;; Tracked objects:
  3986 ;;		On entry : 0/0
  3987 ;;		On exit  : 0/0
  3988 ;;		Unchanged: 0/0
  3989 ;; Data sizes:     COMRAM   BANK0   BANK1   BANK2   BANK3   BANK4   BANK5
  3990 ;;      Params:         0       8       0       0       0       0       0
  3991 ;;      Locals:         0      13       0       0       0       0       0
  3992 ;;      Temps:          0       4       0       0       0       0       0
  3993 ;;      Totals:         0      25       0       0       0       0       0
  3994 ;;Total ram usage:       25 bytes
  3995 ;; Hardware stack levels used:    1
  3996 ;; Hardware stack levels required when called:    6
  3997 ;; This function calls:
  3998 ;;		Nothing
  3999 ;; This function is called by:
  4000 ;;		_PrintVoltage
  4001 ;; This function uses a non-reentrant model
  4002 ;;
  4003                           psect	text12,class=CODE,space=0,reloc=2,group=1
  4004                           	file	"C:\Program Files (x86)\Microchip\xc8\v2.00\pic\sources\c99\common\sprcmul.c"
  4005                           	line	8
  4006                           global __ptext12
  4007                           __ptext12:
  4008  000624                     psect	text12
  4009                           	file	"C:\Program Files (x86)\Microchip\xc8\v2.00\pic\sources\c99\common\sprcmul.c"
  4010                           	line	8
  4011                           	global	__size_of___flmul
  4012                           	__size_of___flmul	equ	__end_of___flmul-___flmul
  4013  0000                     	
  4014                           ___flmul:; BSR set to: 0
  4015  000624                     
  4016                           ;incstack = 0
  4017                           	opt	stack 22
  4018                           	line	17
  4019                           	
  4020                           l2024:
  4021  000624                     	movlb	0	; () banked
  4022  000624  0100               	movf	(0+(___flmul@b+03h))&0ffh,w
  4023  000626  519C               	andlw	low(080h)
  4024  000628  0B80               	movwf	((___flmul@sign))&0ffh
  4025  00062A  6FA5               	line	18
  4026                           	movf	(0+(___flmul@b+03h))&0ffh,w
  4027  00062C  519C               	addwf	(0+(___flmul@b+03h))&0ffh,w
  4028  00062E  259C               	movwf	((___flmul@bexp))&0ffh
  4029  000630  6FAB               	line	19
  4030                           	
  4031                           l2026:; BSR set to: 0
  4032  000632                     
  4033                           	
  4034                           	btfss	(0+(___flmul@b+02h))&0ffh,(7)&7
  4035  000632  AF9B               	goto	u1461
  4036  000634  EF1E  F003         	goto	u1460
  4037  000638  EF20  F003         u1461:
  4038  00063C                     	goto	l2030
  4039  00063C  EF23  F003         u1460:
  4040  000640                     	line	20
  4041                           	
  4042                           l2028:; BSR set to: 0
  4043  000640                     
  4044                           	bsf	(0+(0/8)+(___flmul@bexp))&0ffh,(0)&7
  4045  000640  81AB               	goto	l2030
  4046  000642  EF23  F003         	line	21
  4047                           	
  4048                           l847:; BSR set to: 0
  4049  000646                     
  4050                           	line	24
  4051                           	
  4052                           l2030:; BSR set to: 0
  4053  000646                     
  4054                           	movf	((___flmul@bexp))&0ffh,w
  4055  000646  51AB               	btfsc	status,2
  4056  000648  B4D8               	goto	u1471
  4057  00064A  EF29  F003         	goto	u1470
  4058  00064E  EF2B  F003         u1471:
  4059  000652                     	goto	l2038
  4060  000652  EF40  F003         u1470:
  4061  000656                     	line	26
  4062                           	
  4063                           l2032:; BSR set to: 0
  4064  000656                     
  4065                           		incf	((___flmul@bexp))&0ffh,w
  4066  000656  29AB               	btfss	status,2
  4067  000658  A4D8               	goto	u1481
  4068  00065A  EF31  F003         	goto	u1480
  4069  00065E  EF33  F003         
  4070                           u1481:
  4071  000662                     	goto	l2036
  4072  000662  EF3D  F003         u1480:
  4073  000666                     	line	28
  4074                           	
  4075                           l2034:; BSR set to: 0
  4076  000666                     
  4077                           	movlw	low(normalize32(0x0))
  4078  000666  0E00               	movwf	((___flmul@b))&0ffh
  4079  000668  6F99               	movlw	high(normalize32(0x0))
  4080  00066A  0E00               	movwf	((___flmul@b+1))&0ffh
  4081  00066C  6F9A               	movlw	low highword(normalize32(0x0))
  4082  00066E  0E00               	movwf	((___flmul@b+2))&0ffh
  4083  000670  6F9B               	movlw	high highword(normalize32(0x0))
  4084  000672  0E00               	movwf	((___flmul@b+3))&0ffh
  4085  000674  6F9C               	goto	l2036
  4086  000676  EF3D  F003         	line	29
  4087                           	
  4088                           l849:; BSR set to: 0
  4089  00067A                     
  4090                           	line	31
  4091                           	
  4092                           l2036:; BSR set to: 0
  4093  00067A                     
  4094                           	bsf	(0+(23/8)+(___flmul@b))&0ffh,(23)&7
  4095  00067A  8F9B               	line	33
  4096                           	goto	l2040
  4097  00067C  EF4A  F003         	line	34
  4098                           	
  4099                           l848:; BSR set to: 0
  4100  000680                     
  4101                           	line	36
  4102                           	
  4103                           l2038:; BSR set to: 0
  4104  000680                     
  4105                           	movlw	low(normalize32(0x0))
  4106  000680  0E00               	movwf	((___flmul@b))&0ffh
  4107  000682  6F99               	movlw	high(normalize32(0x0))
  4108  000684  0E00               	movwf	((___flmul@b+1))&0ffh
  4109  000686  6F9A               	movlw	low highword(normalize32(0x0))
  4110  000688  0E00               	movwf	((___flmul@b+2))&0ffh
  4111  00068A  6F9B               	movlw	high highword(normalize32(0x0))
  4112  00068C  0E00               	movwf	((___flmul@b+3))&0ffh
  4113  00068E  6F9C               	goto	l2040
  4114  000690  EF4A  F003         	line	37
  4115                           	
  4116                           l850:; BSR set to: 0
  4117  000694                     
  4118                           	line	39
  4119                           	
  4120                           l2040:; BSR set to: 0
  4121  000694                     
  4122                           	movf	(0+(___flmul@a+03h))&0ffh,w
  4123  000694  51A0               	andlw	low(080h)
  4124  000696  0B80               	xorwf	((___flmul@sign))&0ffh
  4125  000698  1BA5               	line	40
  4126                           	
  4127                           l2042:; BSR set to: 0
  4128  00069A                     
  4129                           	movf	(0+(___flmul@a+03h))&0ffh,w
  4130  00069A  51A0               	addwf	(0+(___flmul@a+03h))&0ffh,w
  4131  00069C  25A0               	movwf	((___flmul@aexp))&0ffh
  4132  00069E  6FAA               	line	41
  4133                           	
  4134                           l2044:; BSR set to: 0
  4135  0006A0                     
  4136                           	
  4137                           	btfss	(0+(___flmul@a+02h))&0ffh,(7)&7
  4138  0006A0  AF9F               	goto	u1491
  4139  0006A2  EF55  F003         	goto	u1490
  4140  0006A6  EF57  F003         u1491:
  4141  0006AA                     	goto	l2048
  4142  0006AA  EF5A  F003         u1490:
  4143  0006AE                     	line	42
  4144                           	
  4145                           l2046:; BSR set to: 0
  4146  0006AE                     
  4147                           	bsf	(0+(0/8)+(___flmul@aexp))&0ffh,(0)&7
  4148  0006AE  81AA               	goto	l2048
  4149  0006B0  EF5A  F003         	line	43
  4150                           	
  4151                           l851:; BSR set to: 0
  4152  0006B4                     
  4153                           	line	45
  4154                           	
  4155                           l2048:; BSR set to: 0
  4156  0006B4                     
  4157                           	movf	((___flmul@aexp))&0ffh,w
  4158  0006B4  51AA               	btfsc	status,2
  4159  0006B6  B4D8               	goto	u1501
  4160  0006B8  EF60  F003         	goto	u1500
  4161  0006BC  EF62  F003         u1501:
  4162  0006C0                     	goto	l2056
  4163  0006C0  EF77  F003         u1500:
  4164  0006C4                     	line	48
  4165                           	
  4166                           l2050:; BSR set to: 0
  4167  0006C4                     
  4168                           		incf	((___flmul@aexp))&0ffh,w
  4169  0006C4  29AA               	btfss	status,2
  4170  0006C6  A4D8               	goto	u1511
  4171  0006C8  EF68  F003         	goto	u1510
  4172  0006CC  EF6A  F003         
  4173                           u1511:
  4174  0006D0                     	goto	l2054
  4175  0006D0  EF74  F003         u1510:
  4176  0006D4                     	line	50
  4177                           	
  4178                           l2052:; BSR set to: 0
  4179  0006D4                     
  4180                           	movlw	low(normalize32(0x0))
  4181  0006D4  0E00               	movwf	((___flmul@a))&0ffh
  4182  0006D6  6F9D               	movlw	high(normalize32(0x0))
  4183  0006D8  0E00               	movwf	((___flmul@a+1))&0ffh
  4184  0006DA  6F9E               	movlw	low highword(normalize32(0x0))
  4185  0006DC  0E00               	movwf	((___flmul@a+2))&0ffh
  4186  0006DE  6F9F               	movlw	high highword(normalize32(0x0))
  4187  0006E0  0E00               	movwf	((___flmul@a+3))&0ffh
  4188  0006E2  6FA0               	goto	l2054
  4189  0006E4  EF74  F003         	line	51
  4190                           	
  4191                           l853:; BSR set to: 0
  4192  0006E8                     
  4193                           	line	53
  4194                           	
  4195                           l2054:; BSR set to: 0
  4196  0006E8                     
  4197                           	bsf	(0+(23/8)+(___flmul@a))&0ffh,(23)&7
  4198  0006E8  8F9F               	line	54
  4199                           	goto	l854
  4200  0006EA  EF7F  F003         	line	55
  4201                           	
  4202                           l852:; BSR set to: 0
  4203  0006EE                     
  4204                           	line	57
  4205                           	
  4206                           l2056:; BSR set to: 0
  4207  0006EE                     
  4208                           	movlw	low(normalize32(0x0))
  4209  0006EE  0E00               	movwf	((___flmul@a))&0ffh
  4210  0006F0  6F9D               	movlw	high(normalize32(0x0))
  4211  0006F2  0E00               	movwf	((___flmul@a+1))&0ffh
  4212  0006F4  6F9E               	movlw	low highword(normalize32(0x0))
  4213  0006F6  0E00               	movwf	((___flmul@a+2))&0ffh
  4214  0006F8  6F9F               	movlw	high highword(normalize32(0x0))
  4215  0006FA  0E00               	movwf	((___flmul@a+3))&0ffh
  4216  0006FC  6FA0               	line	58
  4217                           	
  4218                           l854:; BSR set to: 0
  4219  0006FE                     
  4220                           	line	65
  4221                           	movf	((___flmul@aexp))&0ffh,w
  4222  0006FE  51AA               	btfsc	status,2
  4223  000700  B4D8               	goto	u1521
  4224  000702  EF85  F003         	goto	u1520
  4225  000706  EF87  F003         u1521:
  4226  00070A                     	goto	l2060
  4227  00070A  EF91  F003         u1520:
  4228  00070E                     	
  4229                           l2058:; BSR set to: 0
  4230  00070E                     
  4231                           	movf	((___flmul@bexp))&0ffh,w
  4232  00070E  51AB               	btfss	status,2
  4233  000710  A4D8               	goto	u1531
  4234  000712  EF8D  F003         	goto	u1530
  4235  000716  EF8F  F003         u1531:
  4236  00071A                     	goto	l2064
  4237  00071A  EF9D  F003         u1530:
  4238  00071E                     	goto	l2060
  4239  00071E  EF91  F003         	
  4240                           l857:; BSR set to: 0
  4241  000722                     
  4242                           	line	66
  4243                           	
  4244                           l2060:; BSR set to: 0
  4245  000722                     
  4246                           	movlw	low(normalize32(0x0))
  4247  000722  0E00               	movwf	((?___flmul))&0ffh
  4248  000724  6F99               	movlw	high(normalize32(0x0))
  4249  000726  0E00               	movwf	((?___flmul+1))&0ffh
  4250  000728  6F9A               	movlw	low highword(normalize32(0x0))
  4251  00072A  0E00               	movwf	((?___flmul+2))&0ffh
  4252  00072C  6F9B               	movlw	high highword(normalize32(0x0))
  4253  00072E  0E00               	movwf	((?___flmul+3))&0ffh
  4254  000730  6F9C               	goto	l858
  4255  000732  EF49  F005         	
  4256                           l2062:; BSR set to: 0
  4257  000736                     
  4258                           	goto	l858
  4259  000736  EF49  F005         	line	67
  4260                           	
  4261                           l855:; BSR set to: 0
  4262  00073A                     
  4263                           	line	95
  4264                           	
  4265                           l2064:; BSR set to: 0
  4266  00073A                     
  4267                           	movf	(0+(___flmul@a+02h))&0ffh,w
  4268  00073A  519F               	mulwf	((___flmul@b))&0ffh
  4269  00073C  0399               	movff	prodl,(___flmul@temp)
  4270  00073E  CFF3 F0B0          	movff	prodh,(___flmul@temp+1)
  4271  000742  CFF4 F0B1          	line	96
  4272                           	
  4273                           l2066:; BSR set to: 0
  4274  000746                     
  4275                           	movf	((___flmul@temp))&0ffh,w
  4276  000746  51B0               	movwf	((___flmul@grs))&0ffh
  4277  000748  6FA6               	clrf	((___flmul@grs+1))&0ffh
  4278  00074A  6BA7               	clrf	((___flmul@grs+2))&0ffh
  4279  00074C  6BA8               	clrf	((___flmul@grs+3))&0ffh
  4280  00074E  6BA9               
  4281                           	line	97
  4282                           	
  4283                           l2068:; BSR set to: 0
  4284  000750                     
  4285                           	movf	(0+(___flmul@temp+01h))&0ffh,w
  4286  000750  51B1               	movwf	((___flmul@prod))&0ffh
  4287  000752  6FAC               	clrf	((___flmul@prod+1))&0ffh
  4288  000754  6BAD               	clrf	((___flmul@prod+2))&0ffh
  4289  000756  6BAE               	clrf	((___flmul@prod+3))&0ffh
  4290  000758  6BAF               
  4291                           	line	98
  4292                           	movf	(0+(___flmul@a+01h))&0ffh,w
  4293  00075A  519E               	mulwf	(0+(___flmul@b+01h))&0ffh
  4294  00075C  039A               	movff	prodl,(___flmul@temp)
  4295  00075E  CFF3 F0B0          	movff	prodh,(___flmul@temp+1)
  4296  000762  CFF4 F0B1          	line	99
  4297                           	
  4298                           l2070:; BSR set to: 0
  4299  000766                     
  4300                           	movf	((___flmul@temp))&0ffh,w
  4301  000766  51B0               	addwf	((___flmul@grs))&0ffh
  4302  000768  27A6               	movlw	0
  4303  00076A  0E00               	addwfc	((___flmul@grs+1))&0ffh
  4304  00076C  23A7               	addwfc	((___flmul@grs+2))&0ffh
  4305  00076E  23A8               	addwfc	((___flmul@grs+3))&0ffh
  4306  000770  23A9               	line	100
  4307                           	
  4308                           l2072:; BSR set to: 0
  4309  000772                     
  4310                           	movf	(0+(___flmul@temp+01h))&0ffh,w
  4311  000772  51B1               	addwf	((___flmul@prod))&0ffh
  4312  000774  27AC               	movlw	0
  4313  000776  0E00               	addwfc	((___flmul@prod+1))&0ffh
  4314  000778  23AD               	addwfc	((___flmul@prod+2))&0ffh
  4315  00077A  23AE               	addwfc	((___flmul@prod+3))&0ffh
  4316  00077C  23AF               	line	101
  4317                           	movf	((___flmul@a))&0ffh,w
  4318  00077E  519D               	mulwf	(0+(___flmul@b+02h))&0ffh
  4319  000780  039B               	movff	prodl,(___flmul@temp)
  4320  000782  CFF3 F0B0          	movff	prodh,(___flmul@temp+1)
  4321  000786  CFF4 F0B1          	line	102
  4322                           	
  4323                           l2074:; BSR set to: 0
  4324  00078A                     
  4325                           	movf	((___flmul@temp))&0ffh,w
  4326  00078A  51B0               	addwf	((___flmul@grs))&0ffh
  4327  00078C  27A6               	movlw	0
  4328  00078E  0E00               	addwfc	((___flmul@grs+1))&0ffh
  4329  000790  23A7               	addwfc	((___flmul@grs+2))&0ffh
  4330  000792  23A8               	addwfc	((___flmul@grs+3))&0ffh
  4331  000794  23A9               	line	103
  4332                           	
  4333                           l2076:; BSR set to: 0
  4334  000796                     
  4335                           	movf	(0+(___flmul@temp+01h))&0ffh,w
  4336  000796  51B1               	addwf	((___flmul@prod))&0ffh
  4337  000798  27AC               	movlw	0
  4338  00079A  0E00               	addwfc	((___flmul@prod+1))&0ffh
  4339  00079C  23AD               	addwfc	((___flmul@prod+2))&0ffh
  4340  00079E  23AE               	addwfc	((___flmul@prod+3))&0ffh
  4341  0007A0  23AF               	line	104
  4342                           	
  4343                           l2078:; BSR set to: 0
  4344  0007A2                     
  4345                           	movff	(___flmul@grs+2),(___flmul@grs+3)
  4346  0007A2  C0A8  F0A9         	movff	(___flmul@grs+1),(___flmul@grs+2)
  4347  0007A6  C0A7  F0A8         	movff	(___flmul@grs),(___flmul@grs+1)
  4348  0007AA  C0A6  F0A7         	clrf	((___flmul@grs))&0ffh
  4349  0007AE  6BA6               	line	105
  4350                           	
  4351                           l2080:; BSR set to: 0
  4352  0007B0                     
  4353                           	movf	((___flmul@a))&0ffh,w
  4354  0007B0  519D               	mulwf	(0+(___flmul@b+01h))&0ffh
  4355  0007B2  039A               	movff	prodl,(___flmul@temp)
  4356  0007B4  CFF3 F0B0          	movff	prodh,(___flmul@temp+1)
  4357  0007B8  CFF4 F0B1          	line	106
  4358                           	
  4359                           l2082:; BSR set to: 0
  4360  0007BC                     
  4361                           	movf	((___flmul@temp))&0ffh,w
  4362  0007BC  51B0               	addwf	((___flmul@grs))&0ffh
  4363  0007BE  27A6               	movf	((___flmul@temp+1))&0ffh,w
  4364  0007C0  51B1               	addwfc	((___flmul@grs+1))&0ffh
  4365  0007C2  23A7               	movlw	0
  4366  0007C4  0E00               	addwfc	((___flmul@grs+2))&0ffh
  4367  0007C6  23A8               	movlw	0
  4368  0007C8  0E00               	addwfc	((___flmul@grs+3))&0ffh
  4369  0007CA  23A9               
  4370                           	line	107
  4371                           	
  4372                           l2084:; BSR set to: 0
  4373  0007CC                     
  4374                           	movf	(0+(___flmul@a+01h))&0ffh,w
  4375  0007CC  519E               	mulwf	((___flmul@b))&0ffh
  4376  0007CE  0399               	movff	prodl,(___flmul@temp)
  4377  0007D0  CFF3 F0B0          	movff	prodh,(___flmul@temp+1)
  4378  0007D4  CFF4 F0B1          	line	108
  4379                           	
  4380                           l2086:; BSR set to: 0
  4381  0007D8                     
  4382                           	movf	((___flmul@temp))&0ffh,w
  4383  0007D8  51B0               	addwf	((___flmul@grs))&0ffh
  4384  0007DA  27A6               	movf	((___flmul@temp+1))&0ffh,w
  4385  0007DC  51B1               	addwfc	((___flmul@grs+1))&0ffh
  4386  0007DE  23A7               	movlw	0
  4387  0007E0  0E00               	addwfc	((___flmul@grs+2))&0ffh
  4388  0007E2  23A8               	movlw	0
  4389  0007E4  0E00               	addwfc	((___flmul@grs+3))&0ffh
  4390  0007E6  23A9               
  4391                           	line	109
  4392                           	
  4393                           l2088:; BSR set to: 0
  4394  0007E8                     
  4395                           	movff	(___flmul@grs+2),(___flmul@grs+3)
  4396  0007E8  C0A8  F0A9         	movff	(___flmul@grs+1),(___flmul@grs+2)
  4397  0007EC  C0A7  F0A8         	movff	(___flmul@grs),(___flmul@grs+1)
  4398  0007F0  C0A6  F0A7         	clrf	((___flmul@grs))&0ffh
  4399  0007F4  6BA6               	line	110
  4400                           	movf	((___flmul@a))&0ffh,w
  4401  0007F6  519D               	mulwf	((___flmul@b))&0ffh
  4402  0007F8  0399               	movff	prodl,(___flmul@temp)
  4403  0007FA  CFF3 F0B0          	movff	prodh,(___flmul@temp+1)
  4404  0007FE  CFF4 F0B1          	line	111
  4405                           	
  4406                           l2090:; BSR set to: 0
  4407  000802                     
  4408                           	movf	((___flmul@temp))&0ffh,w
  4409  000802  51B0               	addwf	((___flmul@grs))&0ffh
  4410  000804  27A6               	movf	((___flmul@temp+1))&0ffh,w
  4411  000806  51B1               	addwfc	((___flmul@grs+1))&0ffh
  4412  000808  23A7               	movlw	0
  4413  00080A  0E00               	addwfc	((___flmul@grs+2))&0ffh
  4414  00080C  23A8               	movlw	0
  4415  00080E  0E00               	addwfc	((___flmul@grs+3))&0ffh
  4416  000810  23A9               
  4417                           	line	112
  4418                           	
  4419                           l2092:; BSR set to: 0
  4420  000812                     
  4421                           	movf	(0+(___flmul@a+02h))&0ffh,w
  4422  000812  519F               	mulwf	(0+(___flmul@b+01h))&0ffh
  4423  000814  039A               	movff	prodl,(___flmul@temp)
  4424  000816  CFF3 F0B0          	movff	prodh,(___flmul@temp+1)
  4425  00081A  CFF4 F0B1          	line	113
  4426                           	movf	((___flmul@temp))&0ffh,w
  4427  00081E  51B0               	addwf	((___flmul@prod))&0ffh
  4428  000820  27AC               	movf	((___flmul@temp+1))&0ffh,w
  4429  000822  51B1               	addwfc	((___flmul@prod+1))&0ffh
  4430  000824  23AD               	movlw	0
  4431  000826  0E00               	addwfc	((___flmul@prod+2))&0ffh
  4432  000828  23AE               	movlw	0
  4433  00082A  0E00               	addwfc	((___flmul@prod+3))&0ffh
  4434  00082C  23AF               
  4435                           	line	114
  4436                           	
  4437                           l2094:; BSR set to: 0
  4438  00082E                     
  4439                           	movf	(0+(___flmul@a+01h))&0ffh,w
  4440  00082E  519E               	mulwf	(0+(___flmul@b+02h))&0ffh
  4441  000830  039B               	movff	prodl,(___flmul@temp)
  4442  000832  CFF3 F0B0          	movff	prodh,(___flmul@temp+1)
  4443  000836  CFF4 F0B1          	line	115
  4444                           	
  4445                           l2096:; BSR set to: 0
  4446  00083A                     
  4447                           	movf	((___flmul@temp))&0ffh,w
  4448  00083A  51B0               	addwf	((___flmul@prod))&0ffh
  4449  00083C  27AC               	movf	((___flmul@temp+1))&0ffh,w
  4450  00083E  51B1               	addwfc	((___flmul@prod+1))&0ffh
  4451  000840  23AD               	movlw	0
  4452  000842  0E00               	addwfc	((___flmul@prod+2))&0ffh
  4453  000844  23AE               	movlw	0
  4454  000846  0E00               	addwfc	((___flmul@prod+3))&0ffh
  4455  000848  23AF               
  4456                           	line	116
  4457                           	movf	(0+(___flmul@a+02h))&0ffh,w
  4458  00084A  519F               	mulwf	(0+(___flmul@b+02h))&0ffh
  4459  00084C  039B               	movff	prodl,(___flmul@temp)
  4460  00084E  CFF3 F0B0          	movff	prodh,(___flmul@temp+1)
  4461  000852  CFF4 F0B1          	line	117
  4462                           	
  4463                           l2098:; BSR set to: 0
  4464  000856                     
  4465                           	movf	((___flmul@temp))&0ffh,w
  4466  000856  51B0               	movwf	(??___flmul+0+0)&0ffh
  4467  000858  6FA1               	movf	((___flmul@temp+1))&0ffh,w
  4468  00085A  51B1               	movwf	1+(??___flmul+0+0)&0ffh
  4469  00085C  6FA2               	
  4470                           	clrf	2+(??___flmul+0+0)&0ffh
  4471  00085E  6BA3               	
  4472                           	clrf	3+(??___flmul+0+0)&0ffh
  4473  000860  6BA4               	movff	??___flmul+0+2,??___flmul+0+3
  4474  000862  C0A3  F0A4         	movff	??___flmul+0+1,??___flmul+0+2
  4475  000866  C0A2  F0A3         	movff	??___flmul+0+0,??___flmul+0+1
  4476  00086A  C0A1  F0A2         	clrf	(??___flmul+0+0)&0ffh
  4477  00086E  6BA1               	movf	(??___flmul+0+0)&0ffh,w
  4478  000870  51A1               	addwf	((___flmul@prod))&0ffh
  4479  000872  27AC               	movf	(??___flmul+0+1)&0ffh,w
  4480  000874  51A2               	addwfc	((___flmul@prod+1))&0ffh
  4481  000876  23AD               	movf	(??___flmul+0+2)&0ffh,w
  4482  000878  51A3               	addwfc	((___flmul@prod+2))&0ffh
  4483  00087A  23AE               	movf	(??___flmul+0+3)&0ffh,w
  4484  00087C  51A4               	addwfc	((___flmul@prod+3))&0ffh
  4485  00087E  23AF               
  4486                           	line	145
  4487                           	
  4488                           l2100:; BSR set to: 0
  4489  000880                     
  4490                           	movff	(___flmul@grs),??___flmul+0+0
  4491  000880  C0A6  F0A1         	movff	(___flmul@grs+1),??___flmul+0+0+1
  4492  000884  C0A7  F0A2         	movff	(___flmul@grs+2),??___flmul+0+0+2
  4493  000888  C0A8  F0A3         	movff	(___flmul@grs+3),??___flmul+0+0+3
  4494  00088C  C0A9  F0A4         	movlw	018h+1
  4495  000890  0E19               	goto	u1540
  4496  000892  EF50  F004         u1545:
  4497  000896                     	bcf	status,0
  4498  000896  90D8               	rrcf	(??___flmul+0+3)&0ffh
  4499  000898  33A4               	rrcf	(??___flmul+0+2)&0ffh
  4500  00089A  33A3               	rrcf	(??___flmul+0+1)&0ffh
  4501  00089C  33A2               	rrcf	(??___flmul+0+0)&0ffh
  4502  00089E  33A1               u1540:
  4503  0008A0                     	decfsz	wreg
  4504  0008A0  2EE8               	goto	u1545
  4505  0008A2  EF4B  F004         	movf	(??___flmul+0+0)&0ffh,w
  4506  0008A6  51A1               	addwf	((___flmul@prod))&0ffh
  4507  0008A8  27AC               	movf	(??___flmul+0+1)&0ffh,w
  4508  0008AA  51A2               	addwfc	((___flmul@prod+1))&0ffh
  4509  0008AC  23AD               	movf	(??___flmul+0+2)&0ffh,w
  4510  0008AE  51A3               	addwfc	((___flmul@prod+2))&0ffh
  4511  0008B0  23AE               	movf	(??___flmul+0+3)&0ffh,w
  4512  0008B2  51A4               	addwfc	((___flmul@prod+3))&0ffh
  4513  0008B4  23AF               
  4514                           	line	146
  4515                           	
  4516                           l2102:; BSR set to: 0
  4517  0008B6                     
  4518                           	movff	(___flmul@grs+2),(___flmul@grs+3)
  4519  0008B6  C0A8  F0A9         	movff	(___flmul@grs+1),(___flmul@grs+2)
  4520  0008BA  C0A7  F0A8         	movff	(___flmul@grs),(___flmul@grs+1)
  4521  0008BE  C0A6  F0A7         	clrf	((___flmul@grs))&0ffh
  4522  0008C2  6BA6               	line	149
  4523                           	
  4524                           l2104:; BSR set to: 0
  4525  0008C4                     
  4526                           	movf	((___flmul@aexp))&0ffh,w
  4527  0008C4  51AA               	movff	(___flmul@bexp),??___flmul+0+0
  4528  0008C6  C0AB  F0A1         	clrf	(??___flmul+0+0+1)&0ffh
  4529  0008CA  6BA2               	addwf	(??___flmul+0+0)&0ffh
  4530  0008CC  27A1               	movlw	0
  4531  0008CE  0E00               	addwfc	(??___flmul+0+1)&0ffh
  4532  0008D0  23A2               	movlw	low(-126)
  4533  0008D2  0E82               	addwf	(??___flmul+0+0)&0ffh,w
  4534  0008D4  25A1               	movwf	((___flmul@temp))&0ffh
  4535  0008D6  6FB0               	movlw	high(-126)
  4536  0008D8  0EFF               	addwfc	(??___flmul+0+1)&0ffh,w
  4537  0008DA  21A2               	movwf	1+((___flmul@temp))&0ffh
  4538  0008DC  6FB1               	line	152
  4539                           	goto	l2112
  4540  0008DE  EF88  F004         	
  4541                           l860:; BSR set to: 0
  4542  0008E2                     
  4543                           	line	153
  4544                           	
  4545                           l2106:; BSR set to: 0
  4546  0008E2                     
  4547                           	bcf	status,0
  4548  0008E2  90D8               	rlcf	((___flmul@prod))&0ffh
  4549  0008E4  37AC               	rlcf	((___flmul@prod+1))&0ffh
  4550  0008E6  37AD               	rlcf	((___flmul@prod+2))&0ffh
  4551  0008E8  37AE               	rlcf	((___flmul@prod+3))&0ffh
  4552  0008EA  37AF               	line	154
  4553                           	
  4554                           l2108:; BSR set to: 0
  4555  0008EC                     
  4556                           	
  4557                           	btfss	((___flmul@grs+3))&0ffh,(31)&7
  4558  0008EC  AFA9               	goto	u1551
  4559  0008EE  EF7B  F004         	goto	u1550
  4560  0008F2  EF7D  F004         u1551:
  4561  0008F6                     	goto	l861
  4562  0008F6  EF7E  F004         u1550:
  4563  0008FA                     	line	155
  4564                           	
  4565                           l2110:; BSR set to: 0
  4566  0008FA                     
  4567                           	bsf	(0+(0/8)+(___flmul@prod))&0ffh,(0)&7
  4568  0008FA  81AC               	line	156
  4569                           	
  4570                           l861:; BSR set to: 0
  4571  0008FC                     
  4572                           	line	157
  4573                           	bcf	status,0
  4574  0008FC  90D8               	rlcf	((___flmul@grs))&0ffh
  4575  0008FE  37A6               	rlcf	((___flmul@grs+1))&0ffh
  4576  000900  37A7               	rlcf	((___flmul@grs+2))&0ffh
  4577  000902  37A8               	rlcf	((___flmul@grs+3))&0ffh
  4578  000904  37A9               	line	158
  4579                           	decf	((___flmul@temp))&0ffh
  4580  000906  07B0               	btfss	status,0
  4581  000908  A0D8               	decf	((___flmul@temp+1))&0ffh
  4582  00090A  07B1               	goto	l2112
  4583  00090C  EF88  F004         	line	159
  4584                           	
  4585                           l859:; BSR set to: 0
  4586  000910                     
  4587                           	line	152
  4588                           	
  4589                           l2112:; BSR set to: 0
  4590  000910                     
  4591                           	
  4592                           	btfss	((___flmul@prod+2))&0ffh,(23)&7
  4593  000910  AFAE               	goto	u1561
  4594  000912  EF8D  F004         	goto	u1560
  4595  000916  EF8F  F004         u1561:
  4596  00091A                     	goto	l2106
  4597  00091A  EF71  F004         u1560:
  4598  00091E                     	goto	l2114
  4599  00091E  EF91  F004         	
  4600                           l862:; BSR set to: 0
  4601  000922                     
  4602                           	line	163
  4603                           	
  4604                           l2114:; BSR set to: 0
  4605  000922                     
  4606                           	movlw	low(0)
  4607  000922  0E00               	movwf	((___flmul@aexp))&0ffh
  4608  000924  6FAA               	line	164
  4609                           	
  4610                           l2116:; BSR set to: 0
  4611  000926                     
  4612                           	
  4613                           	btfss	((___flmul@grs+3))&0ffh,(31)&7
  4614  000926  AFA9               	goto	u1571
  4615  000928  EF98  F004         	goto	u1570
  4616  00092C  EF9A  F004         u1571:
  4617  000930                     	goto	l863
  4618  000930  EFC2  F004         u1570:
  4619  000934                     	line	165
  4620                           	
  4621                           l2118:; BSR set to: 0
  4622  000934                     
  4623                           	movlw	0FFh
  4624  000934  0EFF               	andwf	((___flmul@grs))&0ffh,w
  4625  000936  15A6               	movwf	(??___flmul+0+0)&0ffh
  4626  000938  6FA1               	movlw	0FFh
  4627  00093A  0EFF               	andwf	((___flmul@grs+1))&0ffh,w
  4628  00093C  15A7               	movwf	1+(??___flmul+0+0)&0ffh
  4629  00093E  6FA2               	
  4630                           	movlw	0FFh
  4631  000940  0EFF               	andwf	((___flmul@grs+2))&0ffh,w
  4632  000942  15A8               	movwf	2+(??___flmul+0+0)&0ffh
  4633  000944  6FA3               	
  4634                           	movlw	07Fh
  4635  000946  0E7F               	andwf	((___flmul@grs+3))&0ffh,w
  4636  000948  15A9               	movwf	3+(??___flmul+0+0)&0ffh
  4637  00094A  6FA4               	movf	(??___flmul+0+0)&0ffh,w
  4638  00094C  51A1               iorwf	(??___flmul+0+1)&0ffh,w
  4639  00094E  11A2               iorwf	(??___flmul+0+2)&0ffh,w
  4640  000950  11A3               iorwf	(??___flmul+0+3)&0ffh,w
  4641  000952  11A4               	btfsc	status,2
  4642  000954  B4D8               	goto	u1581
  4643  000956  EFAF  F004         	goto	u1580
  4644  00095A  EFB1  F004         
  4645                           u1581:
  4646  00095E                     	goto	l864
  4647  00095E  EFB5  F004         u1580:
  4648  000962                     	line	166
  4649                           	
  4650                           l2120:; BSR set to: 0
  4651  000962                     
  4652                           	movlw	low(01h)
  4653  000962  0E01               	movwf	((___flmul@aexp))&0ffh
  4654  000964  6FAA               	line	167
  4655                           	goto	l863
  4656  000966  EFC2  F004         	line	168
  4657                           	
  4658                           l864:; BSR set to: 0
  4659  00096A                     
  4660                           	line	169
  4661                           	
  4662                           	btfss	((___flmul@prod))&0ffh,(0)&7
  4663  00096A  A1AC               	goto	u1591
  4664  00096C  EFBA  F004         	goto	u1590
  4665  000970  EFBC  F004         u1591:
  4666  000974                     	goto	l863
  4667  000974  EFC2  F004         u1590:
  4668  000978                     	line	170
  4669                           	
  4670                           l2122:; BSR set to: 0
  4671  000978                     
  4672                           	movlw	low(01h)
  4673  000978  0E01               	movwf	((___flmul@aexp))&0ffh
  4674  00097A  6FAA               	goto	l863
  4675  00097C  EFC2  F004         	line	171
  4676                           	
  4677                           l866:; BSR set to: 0
  4678  000980                     
  4679                           	goto	l863
  4680  000980  EFC2  F004         	line	172
  4681                           	
  4682                           l865:; BSR set to: 0
  4683  000984                     
  4684                           	line	173
  4685                           	
  4686                           l863:; BSR set to: 0
  4687  000984                     
  4688                           	line	174
  4689                           	movf	((___flmul@aexp))&0ffh,w
  4690  000984  51AA               	btfsc	status,2
  4691  000986  B4D8               	goto	u1601
  4692  000988  EFC8  F004         	goto	u1600
  4693  00098C  EFCA  F004         u1601:
  4694  000990                     	goto	l2132
  4695  000990  EFF2  F004         u1600:
  4696  000994                     	line	175
  4697                           	
  4698                           l2124:; BSR set to: 0
  4699  000994                     
  4700                           	movlw	low(01h)
  4701  000994  0E01               	addwf	((___flmul@prod))&0ffh
  4702  000996  27AC               	movlw	0
  4703  000998  0E00               	addwfc	((___flmul@prod+1))&0ffh
  4704  00099A  23AD               	addwfc	((___flmul@prod+2))&0ffh
  4705  00099C  23AE               	addwfc	((___flmul@prod+3))&0ffh
  4706  00099E  23AF               	line	176
  4707                           	
  4708                           l2126:; BSR set to: 0
  4709  0009A0                     
  4710                           	
  4711                           	btfss	((___flmul@prod+3))&0ffh,(24)&7
  4712  0009A0  A1AF               	goto	u1611
  4713  0009A2  EFD5  F004         	goto	u1610
  4714  0009A6  EFD7  F004         u1611:
  4715  0009AA                     	goto	l2132
  4716  0009AA  EFF2  F004         u1610:
  4717  0009AE                     	line	177
  4718                           	
  4719                           l2128:; BSR set to: 0
  4720  0009AE                     
  4721                           	movff	(___flmul@prod),??___flmul+0+0
  4722  0009AE  C0AC  F0A1         	movff	(___flmul@prod+1),??___flmul+0+0+1
  4723  0009B2  C0AD  F0A2         	movff	(___flmul@prod+2),??___flmul+0+0+2
  4724  0009B6  C0AE  F0A3         	movff	(___flmul@prod+3),??___flmul+0+0+3
  4725  0009BA  C0AF  F0A4         	rlcf	(??___flmul+0+3)&0ffh,w
  4726  0009BE  35A4               	rrcf	(??___flmul+0+3)&0ffh
  4727  0009C0  33A4               	rrcf	(??___flmul+0+2)&0ffh
  4728  0009C2  33A3               	rrcf	(??___flmul+0+1)&0ffh
  4729  0009C4  33A2               	rrcf	(??___flmul+0+0)&0ffh
  4730  0009C6  33A1               	movff	??___flmul+0+0,(___flmul@prod)
  4731  0009C8  C0A1  F0AC         	movff	??___flmul+0+1,(___flmul@prod+1)
  4732  0009CC  C0A2  F0AD         	movff	??___flmul+0+2,(___flmul@prod+2)
  4733  0009D0  C0A3  F0AE         	movff	??___flmul+0+3,(___flmul@prod+3)
  4734  0009D4  C0A4  F0AF         	line	178
  4735                           	
  4736                           l2130:; BSR set to: 0
  4737  0009D8                     
  4738                           	infsnz	((___flmul@temp))&0ffh
  4739  0009D8  4BB0               	incf	((___flmul@temp+1))&0ffh
  4740  0009DA  2BB1               	goto	l2132
  4741  0009DC  EFF2  F004         	line	179
  4742                           	
  4743                           l868:; BSR set to: 0
  4744  0009E0                     
  4745                           	goto	l2132
  4746  0009E0  EFF2  F004         	line	180
  4747                           	
  4748                           l867:; BSR set to: 0
  4749  0009E4                     
  4750                           	line	183
  4751                           	
  4752                           l2132:; BSR set to: 0
  4753  0009E4                     
  4754                           	btfsc	((___flmul@temp+1))&0ffh,7
  4755  0009E4  BFB1               	goto	u1621
  4756  0009E6  EFFD  F004         	movf	((___flmul@temp+1))&0ffh,w
  4757  0009EA  51B1               	bnz	u1620
  4758  0009EC  E108               	incf	((___flmul@temp))&0ffh,w
  4759  0009EE  29B0               	btfss	status,0
  4760  0009F0  A0D8               	goto	u1621
  4761  0009F2  EFFD  F004         	goto	u1620
  4762  0009F6  EFFF  F004         
  4763                           u1621:
  4764  0009FA                     	goto	l2136
  4765  0009FA  EF09  F005         u1620:
  4766  0009FE                     	line	184
  4767                           	
  4768                           l2134:; BSR set to: 0
  4769  0009FE                     
  4770                           	movlw	low(07F800000h)
  4771  0009FE  0E00               	movwf	((___flmul@prod))&0ffh
  4772  000A00  6FAC               	movlw	high(07F800000h)
  4773  000A02  0E00               	movwf	((___flmul@prod+1))&0ffh
  4774  000A04  6FAD               	movlw	low highword(07F800000h)
  4775  000A06  0E80               	movwf	((___flmul@prod+2))&0ffh
  4776  000A08  6FAE               	movlw	high highword(07F800000h)
  4777  000A0A  0E7F               	movwf	((___flmul@prod+3))&0ffh
  4778  000A0C  6FAF               	line	185
  4779                           	goto	l2148
  4780  000A0E  EF3D  F005         	line	187
  4781                           	
  4782                           l869:; BSR set to: 0
  4783  000A12                     
  4784                           	
  4785                           l2136:; BSR set to: 0
  4786  000A12                     
  4787                           	btfsc	((___flmul@temp+1))&0ffh,7
  4788  000A12  BFB1               	goto	u1630
  4789  000A14  EF16  F005         	movf	((___flmul@temp+1))&0ffh,w
  4790  000A18  51B1               	bnz	u1631
  4791  000A1A  E106               	decf	((___flmul@temp))&0ffh,w
  4792  000A1C  05B0               	btfsc	status,0
  4793  000A1E  B0D8               	goto	u1631
  4794  000A20  EF14  F005         	goto	u1630
  4795  000A24  EF16  F005         
  4796                           u1631:
  4797  000A28                     	goto	l871
  4798  000A28  EF22  F005         u1630:
  4799  000A2C                     	line	188
  4800                           	
  4801                           l2138:; BSR set to: 0
  4802  000A2C                     
  4803                           	movlw	low(0)
  4804  000A2C  0E00               	movwf	((___flmul@prod))&0ffh
  4805  000A2E  6FAC               	movlw	high(0)
  4806  000A30  0E00               	movwf	((___flmul@prod+1))&0ffh
  4807  000A32  6FAD               	movlw	low highword(0)
  4808  000A34  0E00               	movwf	((___flmul@prod+2))&0ffh
  4809  000A36  6FAE               	movlw	high highword(0)
  4810  000A38  0E00               	movwf	((___flmul@prod+3))&0ffh
  4811  000A3A  6FAF               	line	190
  4812                           	movlw	low(0)
  4813  000A3C  0E00               	movwf	((___flmul@sign))&0ffh
  4814  000A3E  6FA5               	line	191
  4815                           	goto	l2148
  4816  000A40  EF3D  F005         	line	192
  4817                           	
  4818                           l871:; BSR set to: 0
  4819  000A44                     
  4820                           	line	194
  4821                           	movff	(___flmul@temp),(___flmul@bexp)
  4822  000A44  C0B0  F0AB         	line	195
  4823                           	
  4824                           l2140:; BSR set to: 0
  4825  000A48                     
  4826                           	movlw	0FFh
  4827  000A48  0EFF               	andwf	((___flmul@prod))&0ffh
  4828  000A4A  17AC               	movlw	0FFh
  4829  000A4C  0EFF               	andwf	((___flmul@prod+1))&0ffh
  4830  000A4E  17AD               	movlw	07Fh
  4831  000A50  0E7F               	andwf	((___flmul@prod+2))&0ffh
  4832  000A52  17AE               	movlw	0
  4833  000A54  0E00               	andwf	((___flmul@prod+3))&0ffh
  4834  000A56  17AF               	line	196
  4835                           	
  4836                           l2142:; BSR set to: 0
  4837  000A58                     
  4838                           	
  4839                           	btfss	((___flmul@bexp))&0ffh,(0)&7
  4840  000A58  A1AB               	goto	u1641
  4841  000A5A  EF31  F005         	goto	u1640
  4842  000A5E  EF33  F005         u1641:
  4843  000A62                     	goto	l2146
  4844  000A62  EF36  F005         u1640:
  4845  000A66                     	line	197
  4846                           	
  4847                           l2144:; BSR set to: 0
  4848  000A66                     
  4849                           	bsf	(0+(7/8)+0+(___flmul@prod+02h))&0ffh,(7)&7
  4850  000A66  8FAE               	goto	l2146
  4851  000A68  EF36  F005         	line	198
  4852                           	
  4853                           l873:; BSR set to: 0
  4854  000A6C                     
  4855                           	line	199
  4856                           	
  4857                           l2146:; BSR set to: 0
  4858  000A6C                     
  4859                           	bcf	status,0
  4860  000A6C  90D8               	rrcf	((___flmul@bexp))&0ffh,w
  4861  000A6E  31AB               	movwf	(0+(___flmul@prod+03h))&0ffh
  4862  000A70  6FAF               	goto	l2148
  4863  000A72  EF3D  F005         	line	200
  4864                           	
  4865                           l872:; BSR set to: 0
  4866  000A76                     
  4867                           	goto	l2148
  4868  000A76  EF3D  F005         	
  4869                           l870:; BSR set to: 0
  4870  000A7A                     
  4871                           	line	201
  4872                           	
  4873                           l2148:; BSR set to: 0
  4874  000A7A                     
  4875                           	movf	((___flmul@sign))&0ffh,w
  4876  000A7A  51A5               	iorwf	(0+(___flmul@prod+03h))&0ffh
  4877  000A7C  13AF               	line	203
  4878                           	
  4879                           l2150:; BSR set to: 0
  4880  000A7E                     
  4881                           	movff	(___flmul@prod),(?___flmul)
  4882  000A7E  C0AC  F099         	movff	(___flmul@prod+1),(?___flmul+1)
  4883  000A82  C0AD  F09A         	movff	(___flmul@prod+2),(?___flmul+2)
  4884  000A86  C0AE  F09B         	movff	(___flmul@prod+3),(?___flmul+3)
  4885  000A8A  C0AF  F09C         	goto	l858
  4886  000A8E  EF49  F005         	
  4887                           l2152:; BSR set to: 0
  4888  000A92                     
  4889                           	line	205
  4890                           	
  4891                           l858:; BSR set to: 0
  4892  000A92                     
  4893                           	return	;funcret
  4894  000A92  0012               	opt stack 0
  4895                           GLOBAL	__end_of___flmul
  4896                           	__end_of___flmul:
  4897  000A94                     	signat	___flmul,8316
  4898                           	global	___awdiv
  4899                           
  4900 ;; *************** function ___awdiv *****************
  4901 ;; Defined at:
  4902 ;;		line 7 in file "C:\Program Files (x86)\Microchip\xc8\v2.00\pic\sources\c99\common\awdiv.c"
  4903 ;; Parameters:    Size  Location     Type
  4904 ;;  dividend        2   11[BANK0 ] int 
  4905 ;;  divisor         2   13[BANK0 ] int 
  4906 ;; Auto vars:     Size  Location     Type
  4907 ;;  quotient        2   17[BANK0 ] int 
  4908 ;;  sign            1   16[BANK0 ] unsigned char 
  4909 ;;  counter         1   15[BANK0 ] unsigned char 
  4910 ;; Return value:  Size  Location     Type
  4911 ;;                  2   11[BANK0 ] int 
  4912 ;; Registers used:
  4913 ;;		wreg, status,2, status,0
  4914 ;; Tracked objects:
  4915 ;;		On entry : 0/0
  4916 ;;		On exit  : 0/0
  4917 ;;		Unchanged: 0/0
  4918 ;; Data sizes:     COMRAM   BANK0   BANK1   BANK2   BANK3   BANK4   BANK5
  4919 ;;      Params:         0       4       0       0       0       0       0
  4920 ;;      Locals:         0       4       0       0       0       0       0
  4921 ;;      Temps:          0       0       0       0       0       0       0
  4922 ;;      Totals:         0       8       0       0       0       0       0
  4923 ;;Total ram usage:        8 bytes
  4924 ;; Hardware stack levels used:    1
  4925 ;; Hardware stack levels required when called:    6
  4926 ;; This function calls:
  4927 ;;		Nothing
  4928 ;; This function is called by:
  4929 ;;		_PrintVoltage
  4930 ;; This function uses a non-reentrant model
  4931 ;;
  4932                           psect	text13,class=CODE,space=0,reloc=2,group=1
  4933                           	file	"C:\Program Files (x86)\Microchip\xc8\v2.00\pic\sources\c99\common\awdiv.c"
  4934                           	line	7
  4935                           global __ptext13
  4936                           __ptext13:
  4937  001D40                     psect	text13
  4938                           	file	"C:\Program Files (x86)\Microchip\xc8\v2.00\pic\sources\c99\common\awdiv.c"
  4939                           	line	7
  4940                           	global	__size_of___awdiv
  4941                           	__size_of___awdiv	equ	__end_of___awdiv-___awdiv
  4942  0000                     	
  4943                           ___awdiv:; BSR set to: 0
  4944  001D40                     
  4945                           ;incstack = 0
  4946                           	opt	stack 22
  4947                           	line	13
  4948                           	
  4949                           l2154:
  4950  001D40                     	movlw	low(0)
  4951  001D40  0E00               	movlb	0	; () banked
  4952  001D42  0100               	movwf	((___awdiv@sign))&0ffh
  4953  001D44  6F90               	line	14
  4954                           	
  4955                           l2156:; BSR set to: 0
  4956  001D46                     
  4957                           	btfsc	((___awdiv@divisor+1))&0ffh,7
  4958  001D46  BF8E               	goto	u1650
  4959  001D48  EFAA  F00E         	goto	u1651
  4960  001D4C  EFA8  F00E         
  4961                           u1651:
  4962  001D50                     	goto	l2162
  4963  001D50  EFB2  F00E         u1650:
  4964  001D54                     	line	15
  4965                           	
  4966                           l2158:; BSR set to: 0
  4967  001D54                     
  4968                           	negf	((___awdiv@divisor))&0ffh
  4969  001D54  6D8D               	comf	((___awdiv@divisor+1))&0ffh
  4970  001D56  1F8E               	btfsc	status,0
  4971  001D58  B0D8               	incf	((___awdiv@divisor+1))&0ffh
  4972  001D5A  2B8E               	line	16
  4973                           	
  4974                           l2160:; BSR set to: 0
  4975  001D5C                     
  4976                           	movlw	low(01h)
  4977  001D5C  0E01               	movwf	((___awdiv@sign))&0ffh
  4978  001D5E  6F90               	goto	l2162
  4979  001D60  EFB2  F00E         	line	17
  4980                           	
  4981                           l461:; BSR set to: 0
  4982  001D64                     
  4983                           	line	18
  4984                           	
  4985                           l2162:; BSR set to: 0
  4986  001D64                     
  4987                           	btfsc	((___awdiv@dividend+1))&0ffh,7
  4988  001D64  BF8C               	goto	u1660
  4989  001D66  EFB9  F00E         	goto	u1661
  4990  001D6A  EFB7  F00E         
  4991                           u1661:
  4992  001D6E                     	goto	l2168
  4993  001D6E  EFC1  F00E         u1660:
  4994  001D72                     	line	19
  4995                           	
  4996                           l2164:; BSR set to: 0
  4997  001D72                     
  4998                           	negf	((___awdiv@dividend))&0ffh
  4999  001D72  6D8B               	comf	((___awdiv@dividend+1))&0ffh
  5000  001D74  1F8C               	btfsc	status,0
  5001  001D76  B0D8               	incf	((___awdiv@dividend+1))&0ffh
  5002  001D78  2B8C               	line	20
  5003                           	
  5004                           l2166:; BSR set to: 0
  5005  001D7A                     
  5006                           	movlw	(01h)&0ffh
  5007  001D7A  0E01               	xorwf	((___awdiv@sign))&0ffh
  5008  001D7C  1B90               	goto	l2168
  5009  001D7E  EFC1  F00E         	line	21
  5010                           	
  5011                           l462:; BSR set to: 0
  5012  001D82                     
  5013                           	line	22
  5014                           	
  5015                           l2168:; BSR set to: 0
  5016  001D82                     
  5017                           	movlw	high(0)
  5018  001D82  0E00               	movwf	((___awdiv@quotient+1))&0ffh
  5019  001D84  6F92               	movlw	low(0)
  5020  001D86  0E00               	movwf	((___awdiv@quotient))&0ffh
  5021  001D88  6F91               	line	23
  5022                           	
  5023                           l2170:; BSR set to: 0
  5024  001D8A                     
  5025                           	movf	((___awdiv@divisor))&0ffh,w
  5026  001D8A  518D               iorwf	((___awdiv@divisor+1))&0ffh,w
  5027  001D8C  118E               	btfsc	status,2
  5028  001D8E  B4D8               	goto	u1671
  5029  001D90  EFCC  F00E         	goto	u1670
  5030  001D94  EFCE  F00E         
  5031                           u1671:
  5032  001D98                     	goto	l2190
  5033  001D98  EF02  F00F         u1670:
  5034  001D9C                     	line	24
  5035                           	
  5036                           l2172:; BSR set to: 0
  5037  001D9C                     
  5038                           	movlw	low(01h)
  5039  001D9C  0E01               	movwf	((___awdiv@counter))&0ffh
  5040  001D9E  6F8F               	line	25
  5041                           	goto	l2176
  5042  001DA0  EFD8  F00E         	
  5043                           l465:; BSR set to: 0
  5044  001DA4                     
  5045                           	line	26
  5046                           	
  5047                           l2174:; BSR set to: 0
  5048  001DA4                     
  5049                           	bcf	status,0
  5050  001DA4  90D8               	rlcf	((___awdiv@divisor))&0ffh
  5051  001DA6  378D               	rlcf	((___awdiv@divisor+1))&0ffh
  5052  001DA8  378E               	line	27
  5053                           	incf	((___awdiv@counter))&0ffh
  5054  001DAA  2B8F               	goto	l2176
  5055  001DAC  EFD8  F00E         	line	28
  5056                           	
  5057                           l464:; BSR set to: 0
  5058  001DB0                     
  5059                           	line	25
  5060                           	
  5061                           l2176:; BSR set to: 0
  5062  001DB0                     
  5063                           	
  5064                           	btfss	((___awdiv@divisor+1))&0ffh,(15)&7
  5065  001DB0  AF8E               	goto	u1681
  5066  001DB2  EFDD  F00E         	goto	u1680
  5067  001DB6  EFDF  F00E         u1681:
  5068  001DBA                     	goto	l2174
  5069  001DBA  EFD2  F00E         u1680:
  5070  001DBE                     	goto	l2178
  5071  001DBE  EFE3  F00E         	
  5072                           l466:; BSR set to: 0
  5073  001DC2                     
  5074                           	goto	l2178
  5075  001DC2  EFE3  F00E         	line	29
  5076                           	
  5077                           l467:; BSR set to: 0
  5078  001DC6                     
  5079                           	line	30
  5080                           	
  5081                           l2178:; BSR set to: 0
  5082  001DC6                     
  5083                           	bcf	status,0
  5084  001DC6  90D8               	rlcf	((___awdiv@quotient))&0ffh
  5085  001DC8  3791               	rlcf	((___awdiv@quotient+1))&0ffh
  5086  001DCA  3792               	line	31
  5087                           	
  5088                           l2180:; BSR set to: 0
  5089  001DCC                     
  5090                           		movf	((___awdiv@divisor))&0ffh,w
  5091  001DCC  518D               	subwf	((___awdiv@dividend))&0ffh,w
  5092  001DCE  5D8B               	movf	((___awdiv@divisor+1))&0ffh,w
  5093  001DD0  518E               	subwfb	((___awdiv@dividend+1))&0ffh,w
  5094  001DD2  598C               	btfss	status,0
  5095  001DD4  A0D8               	goto	u1691
  5096  001DD6  EFEF  F00E         	goto	u1690
  5097  001DDA  EFF1  F00E         
  5098                           u1691:
  5099  001DDE                     	goto	l2186
  5100  001DDE  EFF8  F00E         u1690:
  5101  001DE2                     	line	32
  5102                           	
  5103                           l2182:; BSR set to: 0
  5104  001DE2                     
  5105                           	movf	((___awdiv@divisor))&0ffh,w
  5106  001DE2  518D               	subwf	((___awdiv@dividend))&0ffh
  5107  001DE4  5F8B               	movf	((___awdiv@divisor+1))&0ffh,w
  5108  001DE6  518E               	subwfb	((___awdiv@dividend+1))&0ffh
  5109  001DE8  5B8C               
  5110                           	line	33
  5111                           	
  5112                           l2184:; BSR set to: 0
  5113  001DEA                     
  5114                           	bsf	(0+(0/8)+(___awdiv@quotient))&0ffh,(0)&7
  5115  001DEA  8191               	goto	l2186
  5116  001DEC  EFF8  F00E         	line	34
  5117                           	
  5118                           l468:; BSR set to: 0
  5119  001DF0                     
  5120                           	line	35
  5121                           	
  5122                           l2186:; BSR set to: 0
  5123  001DF0                     
  5124                           	bcf	status,0
  5125  001DF0  90D8               	rrcf	((___awdiv@divisor+1))&0ffh
  5126  001DF2  338E               	rrcf	((___awdiv@divisor))&0ffh
  5127  001DF4  338D               	line	36
  5128                           	
  5129                           l2188:; BSR set to: 0
  5130  001DF6                     
  5131                           	decfsz	((___awdiv@counter))&0ffh
  5132  001DF6  2F8F               	
  5133                           	goto	l2178
  5134  001DF8  EFE3  F00E         	goto	l2190
  5135  001DFC  EF02  F00F         	
  5136                           l469:; BSR set to: 0
  5137  001E00                     
  5138                           	goto	l2190
  5139  001E00  EF02  F00F         	line	37
  5140                           	
  5141                           l463:; BSR set to: 0
  5142  001E04                     
  5143                           	line	38
  5144                           	
  5145                           l2190:; BSR set to: 0
  5146  001E04                     
  5147                           	movf	((___awdiv@sign))&0ffh,w
  5148  001E04  5190               	btfsc	status,2
  5149  001E06  B4D8               	goto	u1701
  5150  001E08  EF08  F00F         	goto	u1700
  5151  001E0C  EF0A  F00F         u1701:
  5152  001E10                     	goto	l2194
  5153  001E10  EF10  F00F         u1700:
  5154  001E14                     	line	39
  5155                           	
  5156                           l2192:; BSR set to: 0
  5157  001E14                     
  5158                           	negf	((___awdiv@quotient))&0ffh
  5159  001E14  6D91               	comf	((___awdiv@quotient+1))&0ffh
  5160  001E16  1F92               	btfsc	status,0
  5161  001E18  B0D8               	incf	((___awdiv@quotient+1))&0ffh
  5162  001E1A  2B92               	goto	l2194
  5163  001E1C  EF10  F00F         	
  5164                           l470:; BSR set to: 0
  5165  001E20                     
  5166                           	line	40
  5167                           	
  5168                           l2194:; BSR set to: 0
  5169  001E20                     
  5170                           	movff	(___awdiv@quotient),(?___awdiv)
  5171  001E20  C091  F08B         	movff	(___awdiv@quotient+1),(?___awdiv+1)
  5172  001E24  C092  F08C         	goto	l471
  5173  001E28  EF16  F00F         	
  5174                           l2196:; BSR set to: 0
  5175  001E2C                     
  5176                           	line	41
  5177                           	
  5178                           l471:; BSR set to: 0
  5179  001E2C                     
  5180                           	return	;funcret
  5181  001E2C  0012               	opt stack 0
  5182                           GLOBAL	__end_of___awdiv
  5183                           	__end_of___awdiv:
  5184  001E2E                     	signat	___awdiv,8314
  5185                           	global	_UART_Write
  5186                           
  5187 ;; *************** function _UART_Write *****************
  5188 ;; Defined at:
  5189 ;;		line 390 in file "Problem3.c"
  5190 ;; Parameters:    Size  Location     Type
  5191 ;;  data            1    wreg     unsigned char 
  5192 ;; Auto vars:     Size  Location     Type
  5193 ;;  data            1   11[BANK0 ] unsigned char 
  5194 ;; Return value:  Size  Location     Type
  5195 ;;                  1    wreg      void 
  5196 ;; Registers used:
  5197 ;;		wreg
  5198 ;; Tracked objects:
  5199 ;;		On entry : 0/0
  5200 ;;		On exit  : 0/0
  5201 ;;		Unchanged: 0/0
  5202 ;; Data sizes:     COMRAM   BANK0   BANK1   BANK2   BANK3   BANK4   BANK5
  5203 ;;      Params:         0       0       0       0       0       0       0
  5204 ;;      Locals:         0       1       0       0       0       0       0
  5205 ;;      Temps:          0       0       0       0       0       0       0
  5206 ;;      Totals:         0       1       0       0       0       0       0
  5207 ;;Total ram usage:        1 bytes
  5208 ;; Hardware stack levels used:    1
  5209 ;; Hardware stack levels required when called:    6
  5210 ;; This function calls:
  5211 ;;		Nothing
  5212 ;; This function is called by:
  5213 ;;		_Mode3
  5214 ;;		_PrintVoltage
  5215 ;;		_UART_Write_Text
  5216 ;; This function uses a non-reentrant model
  5217 ;;
  5218                           psect	text14,class=CODE,space=0,reloc=2,group=0
  5219                           	file	"Problem3.c"
  5220                           	line	390
  5221                           global __ptext14
  5222                           __ptext14:
  5223  00266A                     psect	text14
  5224                           	file	"Problem3.c"
  5225                           	line	390
  5226                           	global	__size_of_UART_Write
  5227                           	__size_of_UART_Write	equ	__end_of_UART_Write-_UART_Write
  5228  0000                     	
  5229                           _UART_Write:; BSR set to: 0
  5230  00266A                     
  5231                           ;incstack = 0
  5232                           	opt	stack 23
  5233                           ;UART_Write@data stored from wreg
  5234                           	movlb	0	; () banked
  5235  00266A  0100               	movwf	((UART_Write@data))&0ffh
  5236  00266C  6F8B               	line	392
  5237                           	
  5238                           l2014:
  5239  00266E                     ;Problem3.c: 390: void UART_Write(unsigned char data);Problem3.c: 391: {;Problem3.c: 392
                                 :     while(!TXSTAbits.TRMT);
  5240                           	goto	l198
  5241  00266E  EF39  F013         	
  5242                           l199:
  5243  002672                     	
  5244                           l198:
  5245  002672                     	btfss	((c:4012)),c,1	;volatile
  5246  002672  A2AC               	goto	u1451
  5247  002674  EF3E  F013         	goto	u1450
  5248  002678  EF40  F013         u1451:
  5249  00267C                     	goto	l198
  5250  00267C  EF39  F013         u1450:
  5251  002680                     	goto	l2016
  5252  002680  EF42  F013         	
  5253                           l200:
  5254  002684                     	line	393
  5255                           	
  5256                           l2016:
  5257  002684                     ;Problem3.c: 393:     TXREG = data;
  5258                           	movff	(UART_Write@data),(c:4013)	;volatile
  5259  002684  C08B  FFAD         	line	394
  5260                           	
  5261                           l201:
  5262  002688                     	return	;funcret
  5263  002688  0012               	opt stack 0
  5264                           GLOBAL	__end_of_UART_Write
  5265                           	__end_of_UART_Write:
  5266  00268A                     	signat	_UART_Write,4217
  5267                           	global	_ADC_Read
  5268                           
  5269 ;; *************** function _ADC_Read *****************
  5270 ;; Defined at:
  5271 ;;		line 418 in file "Problem3.c"
  5272 ;; Parameters:    Size  Location     Type
  5273 ;;  channel         2   11[BANK0 ] int 
  5274 ;; Auto vars:     Size  Location     Type
  5275 ;;  digital         2   15[BANK0 ] int 
  5276 ;; Return value:  Size  Location     Type
  5277 ;;                  2   11[BANK0 ] int 
  5278 ;; Registers used:
  5279 ;;		wreg, status,2, status,0
  5280 ;; Tracked objects:
  5281 ;;		On entry : 0/0
  5282 ;;		On exit  : 0/0
  5283 ;;		Unchanged: 0/0
  5284 ;; Data sizes:     COMRAM   BANK0   BANK1   BANK2   BANK3   BANK4   BANK5
  5285 ;;      Params:         0       2       0       0       0       0       0
  5286 ;;      Locals:         0       2       0       0       0       0       0
  5287 ;;      Temps:          0       2       0       0       0       0       0
  5288 ;;      Totals:         0       6       0       0       0       0       0
  5289 ;;Total ram usage:        6 bytes
  5290 ;; Hardware stack levels used:    1
  5291 ;; Hardware stack levels required when called:    6
  5292 ;; This function calls:
  5293 ;;		Nothing
  5294 ;; This function is called by:
  5295 ;;		_Mode3
  5296 ;;		_Mode2_2
  5297 ;; This function uses a non-reentrant model
  5298 ;;
  5299                           psect	text15,class=CODE,space=0,reloc=2,group=0
  5300                           	line	418
  5301                           global __ptext15
  5302                           __ptext15:
  5303  00242E                     psect	text15
  5304                           	file	"Problem3.c"
  5305                           	line	418
  5306                           	global	__size_of_ADC_Read
  5307                           	__size_of_ADC_Read	equ	__end_of_ADC_Read-_ADC_Read
  5308  0000                     	
  5309                           _ADC_Read:
  5310  00242E                     ;incstack = 0
  5311                           	opt	stack 23
  5312                           	line	422
  5313                           	
  5314                           l2342:
  5315  00242E                     ;Problem3.c: 418: int ADC_Read(int channel);Problem3.c: 419: {;Problem3.c: 420:     int 
                                 digital;;Problem3.c: 422:     ADCON0bits.CHS = channel ;
  5316                           	movff	(ADC_Read@channel),??_ADC_Read+0+0
  5317  00242E  C08B  F08D         	movlb	0	; () banked
  5318  002432  0100               	rlncf	(??_ADC_Read+0+0)&0ffh
  5319  002434  478D               	rlncf	(??_ADC_Read+0+0)&0ffh
  5320  002436  478D               	movf	((c:4034)),c,w	;volatile
  5321  002438  50C2               	xorwf	(??_ADC_Read+0+0)&0ffh,w
  5322  00243A  198D               	andlw	not (((1<<4)-1)<<2)
  5323  00243C  0BC3               	xorwf	(??_ADC_Read+0+0)&0ffh,w
  5324  00243E  198D               	movwf	((c:4034)),c	;volatile
  5325  002440  6EC2               	line	423
  5326                           	
  5327                           l2344:; BSR set to: 0
  5328  002442                     
  5329                           ;Problem3.c: 423:     ADCON0bits.GO = 1;
  5330                           	bsf	((c:4034)),c,1	;volatile
  5331  002442  82C2               	line	424
  5332                           	
  5333                           l2346:; BSR set to: 0
  5334  002444                     
  5335                           ;Problem3.c: 424:     ADCON0bits.ADON = 1;
  5336                           	bsf	((c:4034)),c,0	;volatile
  5337  002444  80C2               	line	426
  5338                           ;Problem3.c: 426:     while(ADCON0bits.GO_nDONE==1);
  5339                           	goto	l218
  5340  002446  EF25  F012         	
  5341                           l219:; BSR set to: 0
  5342  00244A                     
  5343                           	
  5344                           l218:
  5345  00244A                     	btfsc	((c:4034)),c,1	;volatile
  5346  00244A  B2C2               	goto	u1901
  5347  00244C  EF2A  F012         	goto	u1900
  5348  002450  EF2C  F012         u1901:
  5349  002454                     	goto	l218
  5350  002454  EF25  F012         u1900:
  5351  002458                     	goto	l2348
  5352  002458  EF2E  F012         	
  5353                           l220:
  5354  00245C                     	line	428
  5355                           	
  5356                           l2348:
  5357  00245C                     ;Problem3.c: 428:     digital = (ADRESH*256) | (ADRESL);
  5358                           	movf	((c:4035)),c,w	;volatile
  5359  00245C  50C3               	movff	(c:4036),??_ADC_Read+0+0	;volatile
  5360  00245E  CFC4 F08D          	movlb	0	; () banked
  5361  002462  0100               	clrf	(??_ADC_Read+0+0+1)&0ffh
  5362  002464  6B8E               	movff	??_ADC_Read+0+0,??_ADC_Read+0+1
  5363  002466  C08D  F08E         	clrf	(??_ADC_Read+0+0)&0ffh
  5364  00246A  6B8D               	iorwf	(??_ADC_Read+0+0)&0ffh,w
  5365  00246C  118D               	movwf	((ADC_Read@digital))&0ffh
  5366  00246E  6F8F               	movf	(??_ADC_Read+0+1)&0ffh,w
  5367  002470  518E               	movwf	1+((ADC_Read@digital))&0ffh
  5368  002472  6F90               	line	429
  5369                           	
  5370                           l2350:; BSR set to: 0
  5371  002474                     
  5372                           ;Problem3.c: 429:     return(digital);
  5373                           	movff	(ADC_Read@digital),(?_ADC_Read)
  5374  002474  C08F  F08B         	movff	(ADC_Read@digital+1),(?_ADC_Read+1)
  5375  002478  C090  F08C         	goto	l221
  5376  00247C  EF40  F012         	
  5377                           l2352:; BSR set to: 0
  5378  002480                     
  5379                           	line	430
  5380                           	
  5381                           l221:; BSR set to: 0
  5382  002480                     
  5383                           	return	;funcret
  5384  002480  0012               	opt stack 0
  5385                           GLOBAL	__end_of_ADC_Read
  5386                           	__end_of_ADC_Read:
  5387  002482                     	signat	_ADC_Read,4218
  5388                           	global	_Mode2_1
  5389                           
  5390 ;; *************** function _Mode2_1 *****************
  5391 ;; Defined at:
  5392 ;;		line 99 in file "Problem3.c"
  5393 ;; Parameters:    Size  Location     Type
  5394 ;;		None
  5395 ;; Auto vars:     Size  Location     Type
  5396 ;;		None
  5397 ;; Return value:  Size  Location     Type
  5398 ;;                  1    wreg      void 
  5399 ;; Registers used:
  5400 ;;		wreg, fsr2l, fsr2h, status,2, status,0, cstack
  5401 ;; Tracked objects:
  5402 ;;		On entry : 0/0
  5403 ;;		On exit  : 0/0
  5404 ;;		Unchanged: 0/0
  5405 ;; Data sizes:     COMRAM   BANK0   BANK1   BANK2   BANK3   BANK4   BANK5
  5406 ;;      Params:         0       0       0       0       0       0       0
  5407 ;;      Locals:         0       0       0       0       0       0       0
  5408 ;;      Temps:          0       0       0       0       0       0       0
  5409 ;;      Totals:         0       0       0       0       0       0       0
  5410 ;;Total ram usage:        0 bytes
  5411 ;; Hardware stack levels used:    1
  5412 ;; Hardware stack levels required when called:    7
  5413 ;; This function calls:
  5414 ;;		_ClearBuffer
  5415 ;;		_adc_init_2_1
  5416 ;;		_ccp2_init
  5417 ;;		_tmr_init
  5418 ;; This function is called by:
  5419 ;;		_main
  5420 ;; This function uses a non-reentrant model
  5421 ;;
  5422                           psect	text16,class=CODE,space=0,reloc=2,group=0
  5423                           	line	99
  5424                           global __ptext16
  5425                           __ptext16:
  5426  002622                     psect	text16
  5427                           	file	"Problem3.c"
  5428                           	line	99
  5429                           	global	__size_of_Mode2_1
  5430                           	__size_of_Mode2_1	equ	__end_of_Mode2_1-_Mode2_1
  5431  0000                     	
  5432                           _Mode2_1:; BSR set to: 0
  5433  002622                     
  5434                           ;incstack = 0
  5435                           	opt	stack 23
  5436                           	line	100
  5437                           	
  5438                           l2792:
  5439  002622                     ;Problem3.c: 100:     TRISD = 0;
  5440                           	movlw	low(0)
  5441  002622  0E00               	movwf	((c:3989)),c	;volatile
  5442  002624  6E95               	line	101
  5443                           	
  5444                           l2794:
  5445  002626                     ;Problem3.c: 101:     ClearBuffer();
  5446                           	call	_ClearBuffer	;wreg free
  5447  002626  EC30  F011         	line	102
  5448                           	
  5449                           l2796:
  5450  00262A                     ;Problem3.c: 102:     count = 0;
  5451                           	movlw	high(0)
  5452  00262A  0E00               	movwf	((c:_count+1)),c
  5453  00262C  6E52               	movlw	low(0)
  5454  00262E  0E00               	movwf	((c:_count)),c
  5455  002630  6E51               	line	103
  5456                           	
  5457                           l2798:
  5458  002632                     ;Problem3.c: 103:     sum = 0;
  5459                           	movlw	high(0)
  5460  002632  0E00               	movwf	((c:_sum+1)),c
  5461  002634  6E50               	movlw	low(0)
  5462  002636  0E00               	movwf	((c:_sum)),c
  5463  002638  6E4F               	line	104
  5464                           	
  5465                           l2800:
  5466  00263A                     ;Problem3.c: 104:     adc_init_2_1();
  5467                           	call	_adc_init_2_1	;wreg free
  5468  00263A  EC83  F012         	line	105
  5469                           	
  5470                           l2802:
  5471  00263E                     ;Problem3.c: 105:     ccp2_init();
  5472                           	call	_ccp2_init	;wreg free
  5473  00263E  EC64  F013         	line	106
  5474                           	
  5475                           l2804:
  5476  002642                     ;Problem3.c: 106:     tmr_init();
  5477                           	call	_tmr_init	;wreg free
  5478  002642  EC6F  F013         	line	107
  5479                           	
  5480                           l138:
  5481  002646                     	return	;funcret
  5482  002646  0012               	opt stack 0
  5483                           GLOBAL	__end_of_Mode2_1
  5484                           	__end_of_Mode2_1:
  5485  002648                     	signat	_Mode2_1,89
  5486                           	global	_tmr_init
  5487                           
  5488 ;; *************** function _tmr_init *****************
  5489 ;; Defined at:
  5490 ;;		line 337 in file "Problem3.c"
  5491 ;; Parameters:    Size  Location     Type
  5492 ;;		None
  5493 ;; Auto vars:     Size  Location     Type
  5494 ;;		None
  5495 ;; Return value:  Size  Location     Type
  5496 ;;                  1    wreg      void 
  5497 ;; Registers used:
  5498 ;;		wreg, status,2
  5499 ;; Tracked objects:
  5500 ;;		On entry : 0/0
  5501 ;;		On exit  : 0/0
  5502 ;;		Unchanged: 0/0
  5503 ;; Data sizes:     COMRAM   BANK0   BANK1   BANK2   BANK3   BANK4   BANK5
  5504 ;;      Params:         0       0       0       0       0       0       0
  5505 ;;      Locals:         0       0       0       0       0       0       0
  5506 ;;      Temps:          0       0       0       0       0       0       0
  5507 ;;      Totals:         0       0       0       0       0       0       0
  5508 ;;Total ram usage:        0 bytes
  5509 ;; Hardware stack levels used:    1
  5510 ;; Hardware stack levels required when called:    6
  5511 ;; This function calls:
  5512 ;;		Nothing
  5513 ;; This function is called by:
  5514 ;;		_Mode2_1
  5515 ;; This function uses a non-reentrant model
  5516 ;;
  5517                           psect	text17,class=CODE,space=0,reloc=2,group=0
  5518                           	line	337
  5519                           global __ptext17
  5520                           __ptext17:
  5521  0026DE                     psect	text17
  5522                           	file	"Problem3.c"
  5523                           	line	337
  5524                           	global	__size_of_tmr_init
  5525                           	__size_of_tmr_init	equ	__end_of_tmr_init-_tmr_init
  5526  0000                     	
  5527                           _tmr_init:
  5528  0026DE                     ;incstack = 0
  5529                           	opt	stack 23
  5530                           	line	339
  5531                           	
  5532                           l2326:
  5533  0026DE                     ;Problem3.c: 339:     T3CCP1 = 1;
  5534                           	bsf	c:(32139/8),(32139)&7	;volatile
  5535  0026DE  86B1               	line	340
  5536                           ;Problem3.c: 340:     T3CCP2 = 0;
  5537                           	bcf	c:(32142/8),(32142)&7	;volatile
  5538  0026E0  9CB1               	line	341
  5539                           ;Problem3.c: 341:     TMR3ON = 1;
  5540                           	bsf	c:(32136/8),(32136)&7	;volatile
  5541  0026E2  80B1               	line	342
  5542                           ;Problem3.c: 342:     T3CONbits.RD16 = 1;
  5543                           	bsf	((c:4017)),c,7	;volatile
  5544  0026E4  8EB1               	line	345
  5545                           	
  5546                           l2328:
  5547  0026E6                     ;Problem3.c: 345:     T3CONbits.T3CKPS = 1;
  5548                           	movf	((c:4017)),c,w	;volatile
  5549  0026E6  50B1               	andlw	not (((1<<2)-1)<<4)
  5550  0026E8  0BCF               	iorlw	(01h & ((1<<2)-1))<<4
  5551  0026EA  0910               	movwf	((c:4017)),c	;volatile
  5552  0026EC  6EB1               	line	347
  5553                           	
  5554                           l189:
  5555  0026EE                     	return	;funcret
  5556  0026EE  0012               	opt stack 0
  5557                           GLOBAL	__end_of_tmr_init
  5558                           	__end_of_tmr_init:
  5559  0026F0                     	signat	_tmr_init,89
  5560                           	global	_ccp2_init
  5561                           
  5562 ;; *************** function _ccp2_init *****************
  5563 ;; Defined at:
  5564 ;;		line 324 in file "Problem3.c"
  5565 ;; Parameters:    Size  Location     Type
  5566 ;;		None
  5567 ;; Auto vars:     Size  Location     Type
  5568 ;;		None
  5569 ;; Return value:  Size  Location     Type
  5570 ;;                  1    wreg      void 
  5571 ;; Registers used:
  5572 ;;		wreg, status,2
  5573 ;; Tracked objects:
  5574 ;;		On entry : 0/0
  5575 ;;		On exit  : 0/0
  5576 ;;		Unchanged: 0/0
  5577 ;; Data sizes:     COMRAM   BANK0   BANK1   BANK2   BANK3   BANK4   BANK5
  5578 ;;      Params:         0       0       0       0       0       0       0
  5579 ;;      Locals:         0       0       0       0       0       0       0
  5580 ;;      Temps:          0       0       0       0       0       0       0
  5581 ;;      Totals:         0       0       0       0       0       0       0
  5582 ;;Total ram usage:        0 bytes
  5583 ;; Hardware stack levels used:    1
  5584 ;; Hardware stack levels required when called:    6
  5585 ;; This function calls:
  5586 ;;		Nothing
  5587 ;; This function is called by:
  5588 ;;		_Mode2_1
  5589 ;; This function uses a non-reentrant model
  5590 ;;
  5591                           psect	text18,class=CODE,space=0,reloc=2,group=0
  5592                           	line	324
  5593                           global __ptext18
  5594                           __ptext18:
  5595  0026C8                     psect	text18
  5596                           	file	"Problem3.c"
  5597                           	line	324
  5598                           	global	__size_of_ccp2_init
  5599                           	__size_of_ccp2_init	equ	__end_of_ccp2_init-_ccp2_init
  5600  0000                     	
  5601                           _ccp2_init:
  5602  0026C8                     ;incstack = 0
  5603                           	opt	stack 23
  5604                           	line	326
  5605                           	
  5606                           l2322:
  5607  0026C8                     ;Problem3.c: 326:     CCP2M3 = 1;
  5608                           	bsf	c:(32211/8),(32211)&7	;volatile
  5609  0026C8  86BA               	line	327
  5610                           ;Problem3.c: 327:     CCP2M2 = 0;
  5611                           	bcf	c:(32210/8),(32210)&7	;volatile
  5612  0026CA  94BA               	line	328
  5613                           ;Problem3.c: 328:     CCP2M1 = 1;
  5614                           	bsf	c:(32209/8),(32209)&7	;volatile
  5615  0026CC  82BA               	line	329
  5616                           ;Problem3.c: 329:     CCP2M0 = 1;
  5617                           	bsf	c:(32208/8),(32208)&7	;volatile
  5618  0026CE  80BA               	line	331
  5619                           ;Problem3.c: 331:     CCP2IE = 1;
  5620                           	bsf	c:(32000/8),(32000)&7	;volatile
  5621  0026D0  80A0               	line	332
  5622                           ;Problem3.c: 332:     CCP2IP = 1;
  5623                           	bsf	c:(32016/8),(32016)&7	;volatile
  5624  0026D2  80A2               	line	334
  5625                           	
  5626                           l2324:
  5627  0026D4                     ;Problem3.c: 334:     CCPR2 = 31250;
  5628                           	movlw	high(07A12h)
  5629  0026D4  0E7A               	movwf	((c:4027+1)),c	;volatile
  5630  0026D6  6EBC               	movlw	low(07A12h)
  5631  0026D8  0E12               	movwf	((c:4027)),c	;volatile
  5632  0026DA  6EBB               	line	335
  5633                           	
  5634                           l186:
  5635  0026DC                     	return	;funcret
  5636  0026DC  0012               	opt stack 0
  5637                           GLOBAL	__end_of_ccp2_init
  5638                           	__end_of_ccp2_init:
  5639  0026DE                     	signat	_ccp2_init,89
  5640                           	global	_adc_init_2_1
  5641                           
  5642 ;; *************** function _adc_init_2_1 *****************
  5643 ;; Defined at:
  5644 ;;		line 283 in file "Problem3.c"
  5645 ;; Parameters:    Size  Location     Type
  5646 ;;		None
  5647 ;; Auto vars:     Size  Location     Type
  5648 ;;		None
  5649 ;; Return value:  Size  Location     Type
  5650 ;;                  1    wreg      void 
  5651 ;; Registers used:
  5652 ;;		wreg, status,2
  5653 ;; Tracked objects:
  5654 ;;		On entry : 0/0
  5655 ;;		On exit  : 0/0
  5656 ;;		Unchanged: 0/0
  5657 ;; Data sizes:     COMRAM   BANK0   BANK1   BANK2   BANK3   BANK4   BANK5
  5658 ;;      Params:         0       0       0       0       0       0       0
  5659 ;;      Locals:         0       0       0       0       0       0       0
  5660 ;;      Temps:          0       0       0       0       0       0       0
  5661 ;;      Totals:         0       0       0       0       0       0       0
  5662 ;;Total ram usage:        0 bytes
  5663 ;; Hardware stack levels used:    1
  5664 ;; Hardware stack levels required when called:    6
  5665 ;; This function calls:
  5666 ;;		Nothing
  5667 ;; This function is called by:
  5668 ;;		_Mode2_1
  5669 ;; This function uses a non-reentrant model
  5670 ;;
  5671                           psect	text19,class=CODE,space=0,reloc=2,group=0
  5672                           	line	283
  5673                           global __ptext19
  5674                           __ptext19:
  5675  002506                     psect	text19
  5676                           	file	"Problem3.c"
  5677                           	line	283
  5678                           	global	__size_of_adc_init_2_1
  5679                           	__size_of_adc_init_2_1	equ	__end_of_adc_init_2_1-_adc_init_2_1
  5680  0000                     	
  5681                           _adc_init_2_1:
  5682  002506                     ;incstack = 0
  5683                           	opt	stack 23
  5684                           	line	284
  5685                           	
  5686                           l2302:
  5687  002506                     ;Problem3.c: 284:     ADCON1bits.VCFG1 = 0;
  5688                           	bcf	((c:4033)),c,5	;volatile
  5689  002506  9AC1               	line	285
  5690                           ;Problem3.c: 285:     ADCON1bits.VCFG0 = 0;
  5691                           	bcf	((c:4033)),c,4	;volatile
  5692  002508  98C1               	line	286
  5693                           ;Problem3.c: 286:     ADCON1bits.PCFG = 0;
  5694                           		
  5695                           	bcf	((c:4033)),c, 0+0	;volatile
  5696  00250A  90C1               	bcf	((c:4033)),c, 0+1	;volatile
  5697  00250C  92C1               	bcf	((c:4033)),c, 0+2	;volatile
  5698  00250E  94C1               	bcf	((c:4033)),c, 0+3	;volatile
  5699  002510  96C1               
  5700                           	line	287
  5701                           	
  5702                           l2304:
  5703  002512                     ;Problem3.c: 287:     ADCON0bits.CHS = 7;
  5704                           	movf	((c:4034)),c,w	;volatile
  5705  002512  50C2               	andlw	not (((1<<4)-1)<<2)
  5706  002514  0BC3               	iorlw	(07h & ((1<<4)-1))<<2
  5707  002516  091C               	movwf	((c:4034)),c	;volatile
  5708  002518  6EC2               	line	288
  5709                           	
  5710                           l2306:
  5711  00251A                     ;Problem3.c: 288:     TRISEbits.TRISE2 = 1;
  5712                           	bsf	((c:3990)),c,2	;volatile
  5713  00251A  8496               	line	290
  5714                           	
  5715                           l2308:
  5716  00251C                     ;Problem3.c: 290:     ADCON2bits.ADFM = 1;
  5717                           	bsf	((c:4032)),c,7	;volatile
  5718  00251C  8EC0               	line	292
  5719                           ;Problem3.c: 292:     ADCON2bits.ACQT = 1;
  5720                           	movf	((c:4032)),c,w	;volatile
  5721  00251E  50C0               	andlw	not (((1<<3)-1)<<3)
  5722  002520  0BC7               	iorlw	(01h & ((1<<3)-1))<<3
  5723  002522  0908               	movwf	((c:4032)),c	;volatile
  5724  002524  6EC0               	line	293
  5725                           ;Problem3.c: 293:     ADCON2bits.ADCS = 3;
  5726                           	movf	((c:4032)),c,w	;volatile
  5727  002526  50C0               	andlw	not (((1<<3)-1)<<0)
  5728  002528  0BF8               	iorlw	(03h & ((1<<3)-1))<<0
  5729  00252A  0903               	movwf	((c:4032)),c	;volatile
  5730  00252C  6EC0               	line	294
  5731                           	
  5732                           l2310:
  5733  00252E                     ;Problem3.c: 294:     ADCON0bits.ADON = 1;
  5734                           	bsf	((c:4034)),c,0	;volatile
  5735  00252E  80C2               	line	296
  5736                           	
  5737                           l2312:
  5738  002530                     ;Problem3.c: 296:     PIR1bits.ADIF = 0;
  5739                           	bcf	((c:3998)),c,6	;volatile
  5740  002530  9C9E               	line	297
  5741                           	
  5742                           l2314:
  5743  002532                     ;Problem3.c: 297:     PIE1bits.ADIE = 1;
  5744                           	bsf	((c:3997)),c,6	;volatile
  5745  002532  8C9D               	line	298
  5746                           	
  5747                           l2316:
  5748  002534                     ;Problem3.c: 298:     INTCONbits.GIE = 1;
  5749                           	bsf	((c:4082)),c,7	;volatile
  5750  002534  8EF2               	line	299
  5751                           	
  5752                           l2318:
  5753  002536                     ;Problem3.c: 299:     IPEN = 1;
  5754                           	bsf	c:(32391/8),(32391)&7	;volatile
  5755  002536  8ED0               	line	300
  5756                           	
  5757                           l2320:
  5758  002538                     ;Problem3.c: 300:     ADIP = 1;
  5759                           	bsf	c:(31998/8),(31998)&7	;volatile
  5760  002538  8C9F               	line	302
  5761                           	
  5762                           l180:
  5763  00253A                     	return	;funcret
  5764  00253A  0012               	opt stack 0
  5765                           GLOBAL	__end_of_adc_init_2_1
  5766                           	__end_of_adc_init_2_1:
  5767  00253C                     	signat	_adc_init_2_1,89
  5768                           	global	_ClearBuffer
  5769                           
  5770 ;; *************** function _ClearBuffer *****************
  5771 ;; Defined at:
  5772 ;;		line 401 in file "Problem3.c"
  5773 ;; Parameters:    Size  Location     Type
  5774 ;;		None
  5775 ;; Auto vars:     Size  Location     Type
  5776 ;;  i               2   11[BANK0 ] int 
  5777 ;; Return value:  Size  Location     Type
  5778 ;;                  1    wreg      void 
  5779 ;; Registers used:
  5780 ;;		wreg, fsr2l, fsr2h, status,2, status,0
  5781 ;; Tracked objects:
  5782 ;;		On entry : 0/0
  5783 ;;		On exit  : 0/0
  5784 ;;		Unchanged: 0/0
  5785 ;; Data sizes:     COMRAM   BANK0   BANK1   BANK2   BANK3   BANK4   BANK5
  5786 ;;      Params:         0       0       0       0       0       0       0
  5787 ;;      Locals:         0       2       0       0       0       0       0
  5788 ;;      Temps:          0       0       0       0       0       0       0
  5789 ;;      Totals:         0       2       0       0       0       0       0
  5790 ;;Total ram usage:        2 bytes
  5791 ;; Hardware stack levels used:    1
  5792 ;; Hardware stack levels required when called:    6
  5793 ;; This function calls:
  5794 ;;		Nothing
  5795 ;; This function is called by:
  5796 ;;		_Mode2_1
  5797 ;;		_Mode3
  5798 ;;		_main
  5799 ;;		_Mode1
  5800 ;;		_Mode2_2
  5801 ;; This function uses a non-reentrant model
  5802 ;;
  5803                           psect	text20,class=CODE,space=0,reloc=2,group=0
  5804                           	line	401
  5805                           global __ptext20
  5806                           __ptext20:
  5807  002260                     psect	text20
  5808                           	file	"Problem3.c"
  5809                           	line	401
  5810                           	global	__size_of_ClearBuffer
  5811                           	__size_of_ClearBuffer	equ	__end_of_ClearBuffer-_ClearBuffer
  5812  0000                     	
  5813                           _ClearBuffer:
  5814  002260                     ;incstack = 0
  5815                           	opt	stack 23
  5816                           	line	402
  5817                           	
  5818                           l2288:
  5819  002260                     ;Problem3.c: 402:     for(int i = 0; i < 10 ; i++)
  5820                           	movlw	high(0)
  5821  002260  0E00               	movlb	0	; () banked
  5822  002262  0100               	movwf	((ClearBuffer@i+1))&0ffh
  5823  002264  6F8C               	movlw	low(0)
  5824  002266  0E00               	movwf	((ClearBuffer@i))&0ffh
  5825  002268  6F8B               	
  5826                           l2290:; BSR set to: 0
  5827  00226A                     
  5828                           	btfsc	((ClearBuffer@i+1))&0ffh,7
  5829  00226A  BF8C               	goto	u1881
  5830  00226C  EF41  F011         	movf	((ClearBuffer@i+1))&0ffh,w
  5831  002270  518C               	bnz	u1880
  5832  002272  E109               	movlw	10
  5833  002274  0E0A               	subwf	 ((ClearBuffer@i))&0ffh,w
  5834  002276  5D8B               	btfss	status,0
  5835  002278  A0D8               	goto	u1881
  5836  00227A  EF41  F011         	goto	u1880
  5837  00227E  EF43  F011         
  5838                           u1881:
  5839  002282                     	goto	l2294
  5840  002282  EF47  F011         u1880:
  5841  002286                     	goto	l2300
  5842  002286  EF61  F011         	
  5843                           l2292:; BSR set to: 0
  5844  00228A                     
  5845                           	goto	l2300
  5846  00228A  EF61  F011         	
  5847                           l210:; BSR set to: 0
  5848  00228E                     
  5849                           	line	403
  5850                           	
  5851                           l2294:; BSR set to: 0
  5852  00228E                     
  5853                           ;Problem3.c: 403:         mystring[i] = '\0';
  5854                           	movlw	low(_mystring)
  5855  00228E  0ECB               	addwf	((ClearBuffer@i))&0ffh,w
  5856  002290  258B               	movwf	c:fsr2l
  5857  002292  6ED9               	movlw	high(_mystring)
  5858  002294  0E00               	addwfc	((ClearBuffer@i+1))&0ffh,w
  5859  002296  218C               	movwf	1+c:fsr2l
  5860  002298  6EDA               	movlw	low(0)
  5861  00229A  0E00               	movwf	indf2
  5862  00229C  6EDF               	
  5863                           l2296:; BSR set to: 0
  5864  00229E                     
  5865                           	infsnz	((ClearBuffer@i))&0ffh
  5866  00229E  4B8B               	incf	((ClearBuffer@i+1))&0ffh
  5867  0022A0  2B8C               	
  5868                           l2298:; BSR set to: 0
  5869  0022A2                     
  5870                           	btfsc	((ClearBuffer@i+1))&0ffh,7
  5871  0022A2  BF8C               	goto	u1891
  5872  0022A4  EF5D  F011         	movf	((ClearBuffer@i+1))&0ffh,w
  5873  0022A8  518C               	bnz	u1890
  5874  0022AA  E109               	movlw	10
  5875  0022AC  0E0A               	subwf	 ((ClearBuffer@i))&0ffh,w
  5876  0022AE  5D8B               	btfss	status,0
  5877  0022B0  A0D8               	goto	u1891
  5878  0022B2  EF5D  F011         	goto	u1890
  5879  0022B6  EF5F  F011         
  5880                           u1891:
  5881  0022BA                     	goto	l2294
  5882  0022BA  EF47  F011         u1890:
  5883  0022BE                     	goto	l2300
  5884  0022BE  EF61  F011         	
  5885                           l211:; BSR set to: 0
  5886  0022C2                     
  5887                           	line	404
  5888                           	
  5889                           l2300:; BSR set to: 0
  5890  0022C2                     
  5891                           ;Problem3.c: 404:     lenStr = 0;
  5892                           	movlw	high(0)
  5893  0022C2  0E00               	movwf	((_lenStr+1))&0ffh
  5894  0022C4  6FCA               	movlw	low(0)
  5895  0022C6  0E00               	movwf	((_lenStr))&0ffh
  5896  0022C8  6FC9               	line	405
  5897                           	
  5898                           l212:; BSR set to: 0
  5899  0022CA                     
  5900                           	return	;funcret
  5901  0022CA  0012               	opt stack 0
  5902                           GLOBAL	__end_of_ClearBuffer
  5903                           	__end_of_ClearBuffer:
  5904  0022CC                     	signat	_ClearBuffer,89
  5905                           	global	_LED_Init
  5906                           
  5907 ;; *************** function _LED_Init *****************
  5908 ;; Defined at:
  5909 ;;		line 468 in file "Problem3.c"
  5910 ;; Parameters:    Size  Location     Type
  5911 ;;		None
  5912 ;; Auto vars:     Size  Location     Type
  5913 ;;		None
  5914 ;; Return value:  Size  Location     Type
  5915 ;;                  1    wreg      void 
  5916 ;; Registers used:
  5917 ;;		wreg, status,2
  5918 ;; Tracked objects:
  5919 ;;		On entry : 0/0
  5920 ;;		On exit  : 0/0
  5921 ;;		Unchanged: 0/0
  5922 ;; Data sizes:     COMRAM   BANK0   BANK1   BANK2   BANK3   BANK4   BANK5
  5923 ;;      Params:         0       0       0       0       0       0       0
  5924 ;;      Locals:         0       0       0       0       0       0       0
  5925 ;;      Temps:          0       0       0       0       0       0       0
  5926 ;;      Totals:         0       0       0       0       0       0       0
  5927 ;;Total ram usage:        0 bytes
  5928 ;; Hardware stack levels used:    1
  5929 ;; Hardware stack levels required when called:    6
  5930 ;; This function calls:
  5931 ;;		Nothing
  5932 ;; This function is called by:
  5933 ;;		_main
  5934 ;; This function uses a non-reentrant model
  5935 ;;
  5936                           psect	text21,class=CODE,space=0,reloc=2,group=0
  5937                           	line	468
  5938                           global __ptext21
  5939                           __ptext21:
  5940  0024CE                     psect	text21
  5941                           	file	"Problem3.c"
  5942                           	line	468
  5943                           	global	__size_of_LED_Init
  5944                           	__size_of_LED_Init	equ	__end_of_LED_Init-_LED_Init
  5945  0000                     	
  5946                           _LED_Init:; BSR set to: 0
  5947  0024CE                     
  5948                           ;incstack = 0
  5949                           	opt	stack 24
  5950                           	line	470
  5951                           	
  5952                           l2860:
  5953  0024CE                     ;Problem3.c: 470:     TRISCbits.TRISC2 = 0;
  5954                           	bcf	((c:3988)),c,2	;volatile
  5955  0024CE  9494               	line	476
  5956                           	
  5957                           l2862:
  5958  0024D0                     ;Problem3.c: 476:     T2CON = 0x07;
  5959                           	movlw	low(07h)
  5960  0024D0  0E07               	movwf	((c:4042)),c	;volatile
  5961  0024D2  6ECA               	line	477
  5962                           ;Problem3.c: 477:     TMR2 = 0;
  5963                           	movlw	low(0)
  5964  0024D4  0E00               	movwf	((c:4044)),c	;volatile
  5965  0024D6  6ECC               	line	479
  5966                           	
  5967                           l2864:
  5968  0024D8                     ;Problem3.c: 479:     RCONbits.IPEN = 1;
  5969                           	bsf	((c:4048)),c,7	;volatile
  5970  0024D8  8ED0               	line	480
  5971                           	
  5972                           l2866:
  5973  0024DA                     ;Problem3.c: 480:     INTCONbits.GIE = 1;
  5974                           	bsf	((c:4082)),c,7	;volatile
  5975  0024DA  8EF2               	line	482
  5976                           ;Problem3.c: 482:     PR2 = 16;
  5977                           	movlw	low(010h)
  5978  0024DC  0E10               	movwf	((c:4043)),c	;volatile
  5979  0024DE  6ECB               	line	483
  5980                           ;Problem3.c: 483:     CCPR1L = 0;
  5981                           	movlw	low(0)
  5982  0024E0  0E00               	movwf	((c:4030)),c	;volatile
  5983  0024E2  6EBE               	line	484
  5984                           	
  5985                           l2868:
  5986  0024E4                     ;Problem3.c: 484:     CCP1CONbits.DC1B1 = 0;
  5987                           	bcf	((c:4029)),c,5	;volatile
  5988  0024E4  9ABD               	line	485
  5989                           	
  5990                           l2870:
  5991  0024E6                     ;Problem3.c: 485:     CCP1CONbits.DC1B0 = 0;
  5992                           	bcf	((c:4029)),c,4	;volatile
  5993  0024E6  98BD               	line	487
  5994                           	
  5995                           l2872:
  5996  0024E8                     ;Problem3.c: 487:     CCP1CONbits.CCP1M3 = 1;
  5997                           	bsf	((c:4029)),c,3	;volatile
  5998  0024E8  86BD               	line	488
  5999                           	
  6000                           l2874:
  6001  0024EA                     ;Problem3.c: 488:     CCP1CONbits.CCP1M2 = 1;
  6002                           	bsf	((c:4029)),c,2	;volatile
  6003  0024EA  84BD               	line	489
  6004                           	
  6005                           l2876:
  6006  0024EC                     ;Problem3.c: 489:     CCP1CONbits.CCP1M1 = 0;
  6007                           	bcf	((c:4029)),c,1	;volatile
  6008  0024EC  92BD               	line	490
  6009                           	
  6010                           l2878:
  6011  0024EE                     ;Problem3.c: 490:     CCP1CONbits.CCP1M0 = 0;
  6012                           	bcf	((c:4029)),c,0	;volatile
  6013  0024EE  90BD               	line	493
  6014                           	
  6015                           l2880:
  6016  0024F0                     ;Problem3.c: 493:     T1CONbits.RD16 = 1;
  6017                           	bsf	((c:4045)),c,7	;volatile
  6018  0024F0  8ECD               	line	494
  6019                           	
  6020                           l2882:
  6021  0024F2                     ;Problem3.c: 494:     T1CONbits.TMR1ON = 1;
  6022                           	bsf	((c:4045)),c,0	;volatile
  6023  0024F2  80CD               	line	495
  6024                           	
  6025                           l2884:
  6026  0024F4                     ;Problem3.c: 495:     T1CONbits.TMR1CS = 0;
  6027                           	bcf	((c:4045)),c,1	;volatile
  6028  0024F4  92CD               	line	497
  6029                           ;Problem3.c: 497:     TMR1 = 34285;
  6030                           	movlw	high(085EDh)
  6031  0024F6  0E85               	movwf	((c:4046+1)),c	;volatile
  6032  0024F8  6ECF               	movlw	low(085EDh)
  6033  0024FA  0EED               	movwf	((c:4046)),c	;volatile
  6034  0024FC  6ECE               	line	498
  6035                           	
  6036                           l2886:
  6037  0024FE                     ;Problem3.c: 498:     PIE1bits.TMR1IE = 1;
  6038                           	bsf	((c:3997)),c,0	;volatile
  6039  0024FE  809D               	line	499
  6040                           	
  6041                           l2888:
  6042  002500                     ;Problem3.c: 499:     IPR1bits.TMR1IP = 0;
  6043                           	bcf	((c:3999)),c,0	;volatile
  6044  002500  909F               	line	500
  6045                           	
  6046                           l2890:
  6047  002502                     ;Problem3.c: 500:     PIR1bits.TMR1IF = 0;
  6048                           	bcf	((c:3998)),c,0	;volatile
  6049  002502  909E               	line	501
  6050                           	
  6051                           l237:
  6052  002504                     	return	;funcret
  6053  002504  0012               	opt stack 0
  6054                           GLOBAL	__end_of_LED_Init
  6055                           	__end_of_LED_Init:
  6056  002506                     	signat	_LED_Init,89
  6057                           	global	_INTERRUPT_Initialize
  6058                           
  6059 ;; *************** function _INTERRUPT_Initialize *****************
  6060 ;; Defined at:
  6061 ;;		line 349 in file "Problem3.c"
  6062 ;; Parameters:    Size  Location     Type
  6063 ;;		None
  6064 ;; Auto vars:     Size  Location     Type
  6065 ;;		None
  6066 ;; Return value:  Size  Location     Type
  6067 ;;                  1    wreg      void 
  6068 ;; Registers used:
  6069 ;;		None
  6070 ;; Tracked objects:
  6071 ;;		On entry : 0/0
  6072 ;;		On exit  : 0/0
  6073 ;;		Unchanged: 0/0
  6074 ;; Data sizes:     COMRAM   BANK0   BANK1   BANK2   BANK3   BANK4   BANK5
  6075 ;;      Params:         0       0       0       0       0       0       0
  6076 ;;      Locals:         0       0       0       0       0       0       0
  6077 ;;      Temps:          0       0       0       0       0       0       0
  6078 ;;      Totals:         0       0       0       0       0       0       0
  6079 ;;Total ram usage:        0 bytes
  6080 ;; Hardware stack levels used:    1
  6081 ;; Hardware stack levels required when called:    6
  6082 ;; This function calls:
  6083 ;;		Nothing
  6084 ;; This function is called by:
  6085 ;;		_main
  6086 ;; This function uses a non-reentrant model
  6087 ;;
  6088                           psect	text22,class=CODE,space=0,reloc=2,group=0
  6089                           	line	349
  6090                           global __ptext22
  6091                           __ptext22:
  6092  0026F0                     psect	text22
  6093                           	file	"Problem3.c"
  6094                           	line	349
  6095                           	global	__size_of_INTERRUPT_Initialize
  6096                           	__size_of_INTERRUPT_Initialize	equ	__end_of_INTERRUPT_Initialize-_INTERRUPT_Initialize

  6097  0000                     	
  6098                           _INTERRUPT_Initialize:
  6099  0026F0                     ;incstack = 0
  6100                           	opt	stack 24
  6101                           	line	351
  6102                           	
  6103                           l2836:
  6104  0026F0                     ;Problem3.c: 351:     RCONbits.IPEN = 1;
  6105                           	bsf	((c:4048)),c,7	;volatile
  6106  0026F0  8ED0               	line	352
  6107                           ;Problem3.c: 352:     INTCONbits.GIEH = 1;
  6108                           	bsf	((c:4082)),c,7	;volatile
  6109  0026F2  8EF2               	line	353
  6110                           ;Problem3.c: 353:     INTCONbits.GIEL = 1;
  6111                           	bsf	((c:4082)),c,6	;volatile
  6112  0026F4  8CF2               	line	354
  6113                           	
  6114                           l192:
  6115  0026F6                     	return	;funcret
  6116  0026F6  0012               	opt stack 0
  6117                           GLOBAL	__end_of_INTERRUPT_Initialize
  6118                           	__end_of_INTERRUPT_Initialize:
  6119  0026F8                     	signat	_INTERRUPT_Initialize,89
  6120                           	global	_Lo_ISR
  6121                           
  6122 ;; *************** function _Lo_ISR *****************
  6123 ;; Defined at:
  6124 ;;		line 435 in file "Problem3.c"
  6125 ;; Parameters:    Size  Location     Type
  6126 ;;		None
  6127 ;; Auto vars:     Size  Location     Type
  6128 ;;		None
  6129 ;; Return value:  Size  Location     Type
  6130 ;;                  1    wreg      void 
  6131 ;; Registers used:
  6132 ;;		wreg, fsr2l, fsr2h, status,2, status,0, cstack
  6133 ;; Tracked objects:
  6134 ;;		On entry : 0/0
  6135 ;;		On exit  : 0/0
  6136 ;;		Unchanged: 0/0
  6137 ;; Data sizes:     COMRAM   BANK0   BANK1   BANK2   BANK3   BANK4   BANK5
  6138 ;;      Params:         0       0       0       0       0       0       0
  6139 ;;      Locals:         0       0       0       0       0       0       0
  6140 ;;      Temps:          0       5       0       0       0       0       0
  6141 ;;      Totals:         0       5       0       0       0       0       0
  6142 ;;Total ram usage:        5 bytes
  6143 ;; Hardware stack levels used:    1
  6144 ;; Hardware stack levels required when called:    5
  6145 ;; This function calls:
  6146 ;;		_MyusartRead
  6147 ;; This function is called by:
  6148 ;;		Interrupt level 1
  6149 ;; This function uses a non-reentrant model
  6150 ;;
  6151                           psect	intcodelo,class=CODE,space=0,reloc=2
  6152                           global __pintcodelo
  6153                           __pintcodelo:
  6154  000018                     psect	intcodelo
  6155                           	file	"Problem3.c"
  6156                           	line	435
  6157                           	global	__size_of_Lo_ISR
  6158                           	__size_of_Lo_ISR	equ	__end_of_Lo_ISR-_Lo_ISR
  6159  0000                     	
  6160                           _Lo_ISR:
  6161  000018                     ;incstack = 0
  6162                           	opt	stack 22
  6163                           	bsf int$flags,0,c ;set compiler interrupt flag (level 1)
  6164  000018  8053               	movff	status+0,??_Lo_ISR+0
  6165  00001A  CFD8 F086          	movff	wreg+0,??_Lo_ISR+1
  6166  00001E  CFE8 F087          	movff	bsr+0,??_Lo_ISR+2
  6167  000022  CFE0 F088          	movff	fsr2l+0,??_Lo_ISR+3
  6168  000026  CFD9 F089          	movff	fsr2h+0,??_Lo_ISR+4
  6169  00002A  CFDA F08A          	line	437
  6170                           	
  6171                           i1l3046:
  6172  00002E                     ;Problem3.c: 437:     if(RCIF)
  6173                           	btfss	c:(31989/8),(31989)&7	;volatile
  6174  00002E  AA9E               	goto	i1u280_21
  6175  000030  EF1C  F000         	goto	i1u280_20
  6176  000034  EF1E  F000         i1u280_21:
  6177  000038                     	goto	i1l3054
  6178  000038  EF2E  F000         i1u280_20:
  6179  00003C                     	line	439
  6180                           	
  6181                           i1l3048:
  6182  00003C                     ;Problem3.c: 438:     {;Problem3.c: 439:         if(RCSTAbits.OERR)
  6183                           	btfss	((c:4011)),c,1	;volatile
  6184  00003C  A2AB               	goto	i1u281_21
  6185  00003E  EF23  F000         	goto	i1u281_20
  6186  000042  EF25  F000         i1u281_21:
  6187  000046                     	goto	i1l3052
  6188  000046  EF2A  F000         i1u281_20:
  6189  00004A                     	line	441
  6190                           	
  6191                           i1l3050:
  6192  00004A                     ;Problem3.c: 440:         {;Problem3.c: 441:             CREN = 0;
  6193                           	bcf	c:(32092/8),(32092)&7	;volatile
  6194  00004A  98AB               	line	442
  6195                           ;Problem3.c: 442:             __nop();
  6196                           	opt	asmopt_push
  6197                           	opt	asmopt_off
  6198                           	nop
  6199  00004C  F000               	opt	asmopt_pop
  6200                           	line	443
  6201                           ;Problem3.c: 443:             CREN = 1;
  6202                           	bsf	c:(32092/8),(32092)&7	;volatile
  6203  00004E  88AB               	goto	i1l3052
  6204  000050  EF2A  F000         	line	444
  6205                           ;Problem3.c: 444:         }
  6206                           	
  6207                           i1l227:
  6208  000054                     	line	446
  6209                           	
  6210                           i1l3052:
  6211  000054                     ;Problem3.c: 446:         MyusartRead();
  6212                           	call	_MyusartRead	;wreg free
  6213  000054  EC41  F012         	goto	i1l3054
  6214  000058  EF2E  F000         	line	447
  6215                           ;Problem3.c: 447:     }
  6216                           	
  6217                           i1l226:
  6218  00005C                     	line	448
  6219                           	
  6220                           i1l3054:
  6221  00005C                     ;Problem3.c: 448:     if(TMR1IF)
  6222                           	btfss	c:(31984/8),(31984)&7	;volatile
  6223  00005C  A09E               	goto	i1u282_21
  6224  00005E  EF33  F000         	goto	i1u282_20
  6225  000062  EF35  F000         i1u282_21:
  6226  000066                     	goto	i1l234
  6227  000066  EF86  F000         i1u282_20:
  6228  00006A                     	line	450
  6229                           	
  6230                           i1l3056:
  6231  00006A                     ;Problem3.c: 449:     {;Problem3.c: 450:         TMR1IF = 0;
  6232                           	bcf	c:(31984/8),(31984)&7	;volatile
  6233  00006A  909E               	line	451
  6234                           	
  6235                           i1l3058:
  6236  00006C                     ;Problem3.c: 451:         if(mode == 0 && CCPR1L < 16)
  6237                           	movlb	0	; () banked
  6238  00006C  0100               	movf	((_mode))&0ffh,w
  6239  00006E  51C7               iorwf	((_mode+1))&0ffh,w
  6240  000070  11C8               	btfss	status,2
  6241  000072  A4D8               	goto	i1u283_21
  6242  000074  EF3E  F000         	goto	i1u283_20
  6243  000078  EF40  F000         
  6244                           i1u283_21:
  6245  00007C                     	goto	i1l3066
  6246  00007C  EF5B  F000         i1u283_20:
  6247  000080                     	
  6248                           i1l3060:; BSR set to: 0
  6249  000080                     
  6250                           		movlw	010h-0
  6251  000080  0E10               	cpfslt	((c:4030)),c	;volatile
  6252  000082  60BE               	goto	i1u284_21
  6253  000084  EF46  F000         	goto	i1u284_20
  6254  000088  EF48  F000         
  6255                           i1u284_21:
  6256  00008C                     	goto	i1l3066
  6257  00008C  EF5B  F000         i1u284_20:
  6258  000090                     	line	453
  6259                           	
  6260                           i1l3062:; BSR set to: 0
  6261  000090                     
  6262                           ;Problem3.c: 452:         {;Problem3.c: 453:             CCPR1L = CCPR1L + 1;
  6263                           	incf	((c:4030)),c,w	;volatile
  6264  000090  28BE               	movwf	((c:4030)),c	;volatile
  6265  000092  6EBE               	line	454
  6266                           ;Problem3.c: 454:             if(CCPR1L == 16) mode = 1;
  6267                           		movlw	16
  6268  000094  0E10               	xorwf	((c:4030)),c,w	;volatile
  6269  000096  18BE               	btfss	status,2
  6270  000098  A4D8               	goto	i1u285_21
  6271  00009A  EF51  F000         	goto	i1u285_20
  6272  00009E  EF53  F000         
  6273                           i1u285_21:
  6274  0000A2                     	goto	i1l231
  6275  0000A2  EF7E  F000         i1u285_20:
  6276  0000A6                     	
  6277                           i1l3064:; BSR set to: 0
  6278  0000A6                     
  6279                           	movlw	high(01h)
  6280  0000A6  0E00               	movwf	((_mode+1))&0ffh
  6281  0000A8  6FC8               	movlw	low(01h)
  6282  0000AA  0E01               	movwf	((_mode))&0ffh
  6283  0000AC  6FC7               	goto	i1l231
  6284  0000AE  EF7E  F000         	
  6285                           i1l230:; BSR set to: 0
  6286  0000B2                     
  6287                           	line	455
  6288                           ;Problem3.c: 455:         }
  6289                           	goto	i1l231
  6290  0000B2  EF7E  F000         	line	456
  6291                           ;Problem3.c: 456:         else if(mode == 1 && CCPR1L > 0)
  6292                           	
  6293                           i1l229:; BSR set to: 0
  6294  0000B6                     
  6295                           	
  6296                           i1l3066:; BSR set to: 0
  6297  0000B6                     
  6298                           		decf	((_mode))&0ffh,w
  6299  0000B6  05C7               iorwf	((_mode+1))&0ffh,w
  6300  0000B8  11C8               	btfss	status,2
  6301  0000BA  A4D8               	goto	i1u286_21
  6302  0000BC  EF62  F000         	goto	i1u286_20
  6303  0000C0  EF64  F000         
  6304                           i1u286_21:
  6305  0000C4                     	goto	i1l231
  6306  0000C4  EF7E  F000         i1u286_20:
  6307  0000C8                     	
  6308                           i1l3068:; BSR set to: 0
  6309  0000C8                     
  6310                           	movf	((c:4030)),c,w	;volatile
  6311  0000C8  50BE               	btfsc	status,2
  6312  0000CA  B4D8               	goto	i1u287_21
  6313  0000CC  EF6A  F000         	goto	i1u287_20
  6314  0000D0  EF6C  F000         i1u287_21:
  6315  0000D4                     	goto	i1l231
  6316  0000D4  EF7E  F000         i1u287_20:
  6317  0000D8                     	line	458
  6318                           	
  6319                           i1l3070:; BSR set to: 0
  6320  0000D8                     
  6321                           ;Problem3.c: 457:         {;Problem3.c: 458:             CCPR1L = CCPR1L - 1;
  6322                           	decf	((c:4030)),c,w	;volatile
  6323  0000D8  04BE               	movwf	((c:4030)),c	;volatile
  6324  0000DA  6EBE               	line	459
  6325                           	
  6326                           i1l3072:; BSR set to: 0
  6327  0000DC                     
  6328                           ;Problem3.c: 459:             if( CCPR1L == 0) mode = 0;
  6329                           	movf	((c:4030)),c,w	;volatile
  6330  0000DC  50BE               	btfss	status,2
  6331  0000DE  A4D8               	goto	i1u288_21
  6332  0000E0  EF74  F000         	goto	i1u288_20
  6333  0000E4  EF76  F000         i1u288_21:
  6334  0000E8                     	goto	i1l231
  6335  0000E8  EF7E  F000         i1u288_20:
  6336  0000EC                     	
  6337                           i1l3074:; BSR set to: 0
  6338  0000EC                     
  6339                           	movlw	high(0)
  6340  0000EC  0E00               	movwf	((_mode+1))&0ffh
  6341  0000EE  6FC8               	movlw	low(0)
  6342  0000F0  0E00               	movwf	((_mode))&0ffh
  6343  0000F2  6FC7               	goto	i1l231
  6344  0000F4  EF7E  F000         	
  6345                           i1l233:; BSR set to: 0
  6346  0000F8                     
  6347                           	goto	i1l231
  6348  0000F8  EF7E  F000         	line	460
  6349                           ;Problem3.c: 460:         }
  6350                           	
  6351                           i1l232:; BSR set to: 0
  6352  0000FC                     
  6353                           	
  6354                           i1l231:; BSR set to: 0
  6355  0000FC                     
  6356                           	line	461
  6357                           ;Problem3.c: 461:         TMR1 = 34285;
  6358                           	movlw	high(085EDh)
  6359  0000FC  0E85               	movwf	((c:4046+1)),c	;volatile
  6360  0000FE  6ECF               	movlw	low(085EDh)
  6361  000100  0EED               	movwf	((c:4046)),c	;volatile
  6362  000102  6ECE               	goto	i1l234
  6363  000104  EF86  F000         	line	462
  6364                           ;Problem3.c: 462:     }
  6365                           	
  6366                           i1l228:; BSR set to: 0
  6367  000108                     
  6368                           	goto	i1l234
  6369  000108  EF86  F000         	line	465
  6370                           	
  6371                           i1l3076:; BSR set to: 0
  6372  00010C                     
  6373                           	line	466
  6374                           ;Problem3.c: 465:     return;
  6375                           	
  6376                           i1l234:
  6377  00010C                     	movff	??_Lo_ISR+4,fsr2h+0
  6378  00010C  C08A  FFDA         	movff	??_Lo_ISR+3,fsr2l+0
  6379  000110  C089  FFD9         	movff	??_Lo_ISR+2,bsr+0
  6380  000114  C088  FFE0         	movff	??_Lo_ISR+1,wreg+0
  6381  000118  C087  FFE8         	movff	??_Lo_ISR+0,status+0
  6382  00011C  C086  FFD8         	bcf int$flags,0,c ;clear compiler interrupt flag (level 1)
  6383  000120  9053               	retfie
  6384  000122  0010               	opt stack 0
  6385                           GLOBAL	__end_of_Lo_ISR
  6386                           	__end_of_Lo_ISR:
  6387  000124                     	signat	_Lo_ISR,89
  6388                           	global	_MyusartRead
  6389                           
  6390 ;; *************** function _MyusartRead *****************
  6391 ;; Defined at:
  6392 ;;		line 407 in file "Problem3.c"
  6393 ;; Parameters:    Size  Location     Type
  6394 ;;		None
  6395 ;; Auto vars:     Size  Location     Type
  6396 ;;		None
  6397 ;; Return value:  Size  Location     Type
  6398 ;;                  1    wreg      void 
  6399 ;; Registers used:
  6400 ;;		wreg, fsr2l, fsr2h, status,2, status,0, cstack
  6401 ;; Tracked objects:
  6402 ;;		On entry : 0/0
  6403 ;;		On exit  : 0/0
  6404 ;;		Unchanged: 0/0
  6405 ;; Data sizes:     COMRAM   BANK0   BANK1   BANK2   BANK3   BANK4   BANK5
  6406 ;;      Params:         0       0       0       0       0       0       0
  6407 ;;      Locals:         0       0       0       0       0       0       0
  6408 ;;      Temps:          0       0       0       0       0       0       0
  6409 ;;      Totals:         0       0       0       0       0       0       0
  6410 ;;Total ram usage:        0 bytes
  6411 ;; Hardware stack levels used:    1
  6412 ;; Hardware stack levels required when called:    4
  6413 ;; This function calls:
  6414 ;;		___awmod
  6415 ;;		i1_UART_Write
  6416 ;; This function is called by:
  6417 ;;		_Lo_ISR
  6418 ;; This function uses a non-reentrant model
  6419 ;;
  6420                           psect	text24,class=CODE,space=0,reloc=2,group=0
  6421                           	line	407
  6422                           global __ptext24
  6423                           __ptext24:
  6424  002482                     psect	text24
  6425                           	file	"Problem3.c"
  6426                           	line	407
  6427                           	global	__size_of_MyusartRead
  6428                           	__size_of_MyusartRead	equ	__end_of_MyusartRead-_MyusartRead
  6429  0000                     	
  6430                           _MyusartRead:
  6431  002482                     ;incstack = 0
  6432                           	opt	stack 22
  6433                           	line	409
  6434                           	
  6435                           i1l2892:
  6436  002482                     ;Problem3.c: 409:     mystring[lenStr] = RCREG;
  6437                           	movlw	low(_mystring)
  6438  002482  0ECB               	movlb	0	; () banked
  6439  002484  0100               	addwf	((_lenStr))&0ffh,w
  6440  002486  25C9               	movwf	c:fsr2l
  6441  002488  6ED9               	movlw	high(_mystring)
  6442  00248A  0E00               	addwfc	((_lenStr+1))&0ffh,w
  6443  00248C  21CA               	movwf	1+c:fsr2l
  6444  00248E  6EDA               	movff	(c:4014),indf2	;volatile
  6445  002490  CFAE FFDF          
  6446                           	line	410
  6447                           	
  6448                           i1l2894:; BSR set to: 0
  6449  002494                     
  6450                           ;Problem3.c: 410:     UART_Write(mystring[lenStr]);
  6451                           	movlw	low(_mystring)
  6452  002494  0ECB               	addwf	((_lenStr))&0ffh,w
  6453  002496  25C9               	movwf	c:fsr2l
  6454  002498  6ED9               	movlw	high(_mystring)
  6455  00249A  0E00               	addwfc	((_lenStr+1))&0ffh,w
  6456  00249C  21CA               	movwf	1+c:fsr2l
  6457  00249E  6EDA               	movf	indf2,w
  6458  0024A0  50DF               	
  6459                           	call	i1_UART_Write
  6460  0024A2  EC45  F013         	line	411
  6461                           	
  6462                           i1l2896:
  6463  0024A6                     ;Problem3.c: 411:     lenStr++;
  6464                           	movlb	0	; () banked
  6465  0024A6  0100               	infsnz	((_lenStr))&0ffh
  6466  0024A8  4BC9               	incf	((_lenStr+1))&0ffh
  6467  0024AA  2BCA               	line	412
  6468                           	
  6469                           i1l2898:; BSR set to: 0
  6470  0024AC                     
  6471                           ;Problem3.c: 412:     lenStr %= 10;
  6472                           	movff	(_lenStr),(___awmod@dividend)
  6473  0024AC  C0C9  F080         	movff	(_lenStr+1),(___awmod@dividend+1)
  6474  0024B0  C0CA  F081         	movlw	high(0Ah)
  6475  0024B4  0E00               	movwf	((___awmod@divisor+1))&0ffh
  6476  0024B6  6F83               	movlw	low(0Ah)
  6477  0024B8  0E0A               	movwf	((___awmod@divisor))&0ffh
  6478  0024BA  6F82               	call	___awmod	;wreg free
  6479  0024BC  ECFC  F00F         	movff	0+?___awmod,(_lenStr)
  6480  0024C0  C080  F0C9         	movff	1+?___awmod,(_lenStr+1)
  6481  0024C4  C081  F0CA         	goto	i1l215
  6482  0024C8  EF66  F012         	line	415
  6483                           	
  6484                           i1l2900:
  6485  0024CC                     	line	416
  6486                           ;Problem3.c: 415:     return ;
  6487                           	
  6488                           i1l215:
  6489  0024CC                     	return	;funcret
  6490  0024CC  0012               	opt stack 0
  6491                           GLOBAL	__end_of_MyusartRead
  6492                           	__end_of_MyusartRead:
  6493  0024CE                     	signat	_MyusartRead,89
  6494                           	global	i1_UART_Write
  6495                           
  6496 ;; *************** function i1_UART_Write *****************
  6497 ;; Defined at:
  6498 ;;		line 390 in file "Problem3.c"
  6499 ;; Parameters:    Size  Location     Type
  6500 ;;  data            1    wreg     unsigned char 
  6501 ;; Auto vars:     Size  Location     Type
  6502 ;;  data            1    0[BANK0 ] unsigned char 
  6503 ;; Return value:  Size  Location     Type
  6504 ;;                  1    wreg      void 
  6505 ;; Registers used:
  6506 ;;		wreg
  6507 ;; Tracked objects:
  6508 ;;		On entry : 0/0
  6509 ;;		On exit  : 0/0
  6510 ;;		Unchanged: 0/0
  6511 ;; Data sizes:     COMRAM   BANK0   BANK1   BANK2   BANK3   BANK4   BANK5
  6512 ;;      Params:         0       0       0       0       0       0       0
  6513 ;;      Locals:         0       1       0       0       0       0       0
  6514 ;;      Temps:          0       0       0       0       0       0       0
  6515 ;;      Totals:         0       1       0       0       0       0       0
  6516 ;;Total ram usage:        1 bytes
  6517 ;; Hardware stack levels used:    1
  6518 ;; Hardware stack levels required when called:    3
  6519 ;; This function calls:
  6520 ;;		Nothing
  6521 ;; This function is called by:
  6522 ;;		_MyusartRead
  6523 ;; This function uses a non-reentrant model
  6524 ;;
  6525                           psect	text25,class=CODE,space=0,reloc=2,group=0
  6526                           	line	390
  6527                           global __ptext25
  6528                           __ptext25:
  6529  00268A                     psect	text25
  6530                           	file	"Problem3.c"
  6531                           	line	390
  6532                           	global	__size_ofi1_UART_Write
  6533                           	__size_ofi1_UART_Write	equ	__end_ofi1_UART_Write-i1_UART_Write
  6534  0000                     	
  6535                           i1_UART_Write:
  6536  00268A                     ;incstack = 0
  6537                           	opt	stack 22
  6538                           ;i1UART_Write@data stored from wreg
  6539                           	movlb	0	; () banked
  6540  00268A  0100               	movwf	((i1UART_Write@data))&0ffh
  6541  00268C  6F80               	line	392
  6542                           	
  6543                           i1l2472:
  6544  00268E                     ;Problem3.c: 390: void UART_Write(unsigned char data);Problem3.c: 391: {;Problem3.c: 392
                                 :     while(!TXSTAbits.TRMT);
  6545                           	goto	i1l198
  6546  00268E  EF49  F013         	
  6547                           i1l199:
  6548  002692                     	
  6549                           i1l198:
  6550  002692                     	btfss	((c:4012)),c,1	;volatile
  6551  002692  A2AC               	goto	i1u207_21
  6552  002694  EF4E  F013         	goto	i1u207_20
  6553  002698  EF50  F013         i1u207_21:
  6554  00269C                     	goto	i1l198
  6555  00269C  EF49  F013         i1u207_20:
  6556  0026A0                     	goto	i1l2474
  6557  0026A0  EF52  F013         	
  6558                           i1l200:
  6559  0026A4                     	line	393
  6560                           	
  6561                           i1l2474:
  6562  0026A4                     ;Problem3.c: 393:     TXREG = data;
  6563                           	movff	(i1UART_Write@data),(c:4013)	;volatile
  6564  0026A4  C080  FFAD         	line	394
  6565                           	
  6566                           i1l201:
  6567  0026A8                     	return	;funcret
  6568  0026A8  0012               	opt stack 0
  6569                           GLOBAL	__end_ofi1_UART_Write
  6570                           	__end_ofi1_UART_Write:
  6571  0026AA                     	signat	i1_UART_Write,89
  6572                           	global	___awmod
  6573                           
  6574 ;; *************** function ___awmod *****************
  6575 ;; Defined at:
  6576 ;;		line 7 in file "C:\Program Files (x86)\Microchip\xc8\v2.00\pic\sources\c99\common\awmod.c"
  6577 ;; Parameters:    Size  Location     Type
  6578 ;;  dividend        2    0[BANK0 ] int 
  6579 ;;  divisor         2    2[BANK0 ] int 
  6580 ;; Auto vars:     Size  Location     Type
  6581 ;;  sign            1    5[BANK0 ] unsigned char 
  6582 ;;  counter         1    4[BANK0 ] unsigned char 
  6583 ;; Return value:  Size  Location     Type
  6584 ;;                  2    0[BANK0 ] int 
  6585 ;; Registers used:
  6586 ;;		wreg, status,2, status,0
  6587 ;; Tracked objects:
  6588 ;;		On entry : 0/0
  6589 ;;		On exit  : 0/0
  6590 ;;		Unchanged: 0/0
  6591 ;; Data sizes:     COMRAM   BANK0   BANK1   BANK2   BANK3   BANK4   BANK5
  6592 ;;      Params:         0       4       0       0       0       0       0
  6593 ;;      Locals:         0       2       0       0       0       0       0
  6594 ;;      Temps:          0       0       0       0       0       0       0
  6595 ;;      Totals:         0       6       0       0       0       0       0
  6596 ;;Total ram usage:        6 bytes
  6597 ;; Hardware stack levels used:    1
  6598 ;; Hardware stack levels required when called:    3
  6599 ;; This function calls:
  6600 ;;		Nothing
  6601 ;; This function is called by:
  6602 ;;		_MyusartRead
  6603 ;; This function uses a non-reentrant model
  6604 ;;
  6605                           psect	text26,class=CODE,space=0,reloc=2,group=1
  6606                           	file	"C:\Program Files (x86)\Microchip\xc8\v2.00\pic\sources\c99\common\awmod.c"
  6607                           	line	7
  6608                           global __ptext26
  6609                           __ptext26:
  6610  001FF8                     psect	text26
  6611                           	file	"C:\Program Files (x86)\Microchip\xc8\v2.00\pic\sources\c99\common\awmod.c"
  6612                           	line	7
  6613                           	global	__size_of___awmod
  6614                           	__size_of___awmod	equ	__end_of___awmod-___awmod
  6615  0000                     	
  6616                           ___awmod:
  6617  001FF8                     ;incstack = 0
  6618                           	opt	stack 22
  6619                           	line	12
  6620                           	
  6621                           i1l2394:
  6622  001FF8                     	movlw	low(0)
  6623  001FF8  0E00               	movlb	0	; () banked
  6624  001FFA  0100               	movwf	((___awmod@sign))&0ffh
  6625  001FFC  6F85               	line	13
  6626                           	
  6627                           i1l2396:; BSR set to: 0
  6628  001FFE                     
  6629                           	btfsc	((___awmod@dividend+1))&0ffh,7
  6630  001FFE  BF81               	goto	i1u193_20
  6631  002000  EF06  F010         	goto	i1u193_21
  6632  002004  EF04  F010         
  6633                           i1u193_21:
  6634  002008                     	goto	i1l2402
  6635  002008  EF0E  F010         i1u193_20:
  6636  00200C                     	line	14
  6637                           	
  6638                           i1l2398:; BSR set to: 0
  6639  00200C                     
  6640                           	negf	((___awmod@dividend))&0ffh
  6641  00200C  6D80               	comf	((___awmod@dividend+1))&0ffh
  6642  00200E  1F81               	btfsc	status,0
  6643  002010  B0D8               	incf	((___awmod@dividend+1))&0ffh
  6644  002012  2B81               	line	15
  6645                           	
  6646                           i1l2400:; BSR set to: 0
  6647  002014                     
  6648                           	movlw	low(01h)
  6649  002014  0E01               	movwf	((___awmod@sign))&0ffh
  6650  002016  6F85               	goto	i1l2402
  6651  002018  EF0E  F010         	line	16
  6652                           	
  6653                           i1l474:; BSR set to: 0
  6654  00201C                     
  6655                           	line	17
  6656                           	
  6657                           i1l2402:; BSR set to: 0
  6658  00201C                     
  6659                           	btfsc	((___awmod@divisor+1))&0ffh,7
  6660  00201C  BF83               	goto	i1u194_20
  6661  00201E  EF15  F010         	goto	i1u194_21
  6662  002022  EF13  F010         
  6663                           i1u194_21:
  6664  002026                     	goto	i1l2406
  6665  002026  EF1B  F010         i1u194_20:
  6666  00202A                     	line	18
  6667                           	
  6668                           i1l2404:; BSR set to: 0
  6669  00202A                     
  6670                           	negf	((___awmod@divisor))&0ffh
  6671  00202A  6D82               	comf	((___awmod@divisor+1))&0ffh
  6672  00202C  1F83               	btfsc	status,0
  6673  00202E  B0D8               	incf	((___awmod@divisor+1))&0ffh
  6674  002030  2B83               	goto	i1l2406
  6675  002032  EF1B  F010         	
  6676                           i1l475:; BSR set to: 0
  6677  002036                     
  6678                           	line	19
  6679                           	
  6680                           i1l2406:; BSR set to: 0
  6681  002036                     
  6682                           	movf	((___awmod@divisor))&0ffh,w
  6683  002036  5182               iorwf	((___awmod@divisor+1))&0ffh,w
  6684  002038  1183               	btfsc	status,2
  6685  00203A  B4D8               	goto	i1u195_21
  6686  00203C  EF22  F010         	goto	i1u195_20
  6687  002040  EF24  F010         
  6688                           i1u195_21:
  6689  002044                     	goto	i1l2422
  6690  002044  EF54  F010         i1u195_20:
  6691  002048                     	line	20
  6692                           	
  6693                           i1l2408:; BSR set to: 0
  6694  002048                     
  6695                           	movlw	low(01h)
  6696  002048  0E01               	movwf	((___awmod@counter))&0ffh
  6697  00204A  6F84               	line	21
  6698                           	goto	i1l2412
  6699  00204C  EF2E  F010         	
  6700                           i1l478:; BSR set to: 0
  6701  002050                     
  6702                           	line	22
  6703                           	
  6704                           i1l2410:; BSR set to: 0
  6705  002050                     
  6706                           	bcf	status,0
  6707  002050  90D8               	rlcf	((___awmod@divisor))&0ffh
  6708  002052  3782               	rlcf	((___awmod@divisor+1))&0ffh
  6709  002054  3783               	line	23
  6710                           	incf	((___awmod@counter))&0ffh
  6711  002056  2B84               	goto	i1l2412
  6712  002058  EF2E  F010         	line	24
  6713                           	
  6714                           i1l477:; BSR set to: 0
  6715  00205C                     
  6716                           	line	21
  6717                           	
  6718                           i1l2412:; BSR set to: 0
  6719  00205C                     
  6720                           	
  6721                           	btfss	((___awmod@divisor+1))&0ffh,(15)&7
  6722  00205C  AF83               	goto	i1u196_21
  6723  00205E  EF33  F010         	goto	i1u196_20
  6724  002062  EF35  F010         i1u196_21:
  6725  002066                     	goto	i1l2410
  6726  002066  EF28  F010         i1u196_20:
  6727  00206A                     	goto	i1l2414
  6728  00206A  EF39  F010         	
  6729                           i1l479:; BSR set to: 0
  6730  00206E                     
  6731                           	goto	i1l2414
  6732  00206E  EF39  F010         	line	25
  6733                           	
  6734                           i1l480:; BSR set to: 0
  6735  002072                     
  6736                           	line	26
  6737                           	
  6738                           i1l2414:; BSR set to: 0
  6739  002072                     
  6740                           		movf	((___awmod@divisor))&0ffh,w
  6741  002072  5182               	subwf	((___awmod@dividend))&0ffh,w
  6742  002074  5D80               	movf	((___awmod@divisor+1))&0ffh,w
  6743  002076  5183               	subwfb	((___awmod@dividend+1))&0ffh,w
  6744  002078  5981               	btfss	status,0
  6745  00207A  A0D8               	goto	i1u197_21
  6746  00207C  EF42  F010         	goto	i1u197_20
  6747  002080  EF44  F010         
  6748                           i1u197_21:
  6749  002084                     	goto	i1l2418
  6750  002084  EF4A  F010         i1u197_20:
  6751  002088                     	line	27
  6752                           	
  6753                           i1l2416:; BSR set to: 0
  6754  002088                     
  6755                           	movf	((___awmod@divisor))&0ffh,w
  6756  002088  5182               	subwf	((___awmod@dividend))&0ffh
  6757  00208A  5F80               	movf	((___awmod@divisor+1))&0ffh,w
  6758  00208C  5183               	subwfb	((___awmod@dividend+1))&0ffh
  6759  00208E  5B81               
  6760                           	goto	i1l2418
  6761  002090  EF4A  F010         	
  6762                           i1l481:; BSR set to: 0
  6763  002094                     
  6764                           	line	28
  6765                           	
  6766                           i1l2418:; BSR set to: 0
  6767  002094                     
  6768                           	bcf	status,0
  6769  002094  90D8               	rrcf	((___awmod@divisor+1))&0ffh
  6770  002096  3383               	rrcf	((___awmod@divisor))&0ffh
  6771  002098  3382               	line	29
  6772                           	
  6773                           i1l2420:; BSR set to: 0
  6774  00209A                     
  6775                           	decfsz	((___awmod@counter))&0ffh
  6776  00209A  2F84               	
  6777                           	goto	i1l2414
  6778  00209C  EF39  F010         	goto	i1l2422
  6779  0020A0  EF54  F010         	
  6780                           i1l482:; BSR set to: 0
  6781  0020A4                     
  6782                           	goto	i1l2422
  6783  0020A4  EF54  F010         	line	30
  6784                           	
  6785                           i1l476:; BSR set to: 0
  6786  0020A8                     
  6787                           	line	31
  6788                           	
  6789                           i1l2422:; BSR set to: 0
  6790  0020A8                     
  6791                           	movf	((___awmod@sign))&0ffh,w
  6792  0020A8  5185               	btfsc	status,2
  6793  0020AA  B4D8               	goto	i1u198_21
  6794  0020AC  EF5A  F010         	goto	i1u198_20
  6795  0020B0  EF5C  F010         i1u198_21:
  6796  0020B4                     	goto	i1l2426
  6797  0020B4  EF62  F010         i1u198_20:
  6798  0020B8                     	line	32
  6799                           	
  6800                           i1l2424:; BSR set to: 0
  6801  0020B8                     
  6802                           	negf	((___awmod@dividend))&0ffh
  6803  0020B8  6D80               	comf	((___awmod@dividend+1))&0ffh
  6804  0020BA  1F81               	btfsc	status,0
  6805  0020BC  B0D8               	incf	((___awmod@dividend+1))&0ffh
  6806  0020BE  2B81               	goto	i1l2426
  6807  0020C0  EF62  F010         	
  6808                           i1l483:; BSR set to: 0
  6809  0020C4                     
  6810                           	line	33
  6811                           	
  6812                           i1l2426:; BSR set to: 0
  6813  0020C4                     
  6814                           	movff	(___awmod@dividend),(?___awmod)
  6815  0020C4  C080  F080         	movff	(___awmod@dividend+1),(?___awmod+1)
  6816  0020C8  C081  F081         	goto	i1l484
  6817  0020CC  EF68  F010         	
  6818                           i1l2428:; BSR set to: 0
  6819  0020D0                     
  6820                           	line	34
  6821                           	
  6822                           i1l484:; BSR set to: 0
  6823  0020D0                     
  6824                           	return	;funcret
  6825  0020D0  0012               	opt stack 0
  6826                           GLOBAL	__end_of___awmod
  6827                           	__end_of___awmod:
  6828  0020D2                     	signat	___awmod,8314
  6829                           	global	_Hi_ISR
  6830                           
  6831 ;; *************** function _Hi_ISR *****************
  6832 ;; Defined at:
  6833 ;;		line 247 in file "Problem3.c"
  6834 ;; Parameters:    Size  Location     Type
  6835 ;;		None
  6836 ;; Auto vars:     Size  Location     Type
  6837 ;;		None
  6838 ;; Return value:  Size  Location     Type
  6839 ;;                  1    wreg      void 
  6840 ;; Registers used:
  6841 ;;		wreg, fsr2l, fsr2h, status,2, status,0, tblptrl, tblptrh, tblptru, prodl, prodh, cstack
  6842 ;; Tracked objects:
  6843 ;;		On entry : 0/0
  6844 ;;		On exit  : 0/0
  6845 ;;		Unchanged: 0/0
  6846 ;; Data sizes:     COMRAM   BANK0   BANK1   BANK2   BANK3   BANK4   BANK5
  6847 ;;      Params:         0       0       0       0       0       0       0
  6848 ;;      Locals:         2       0       0       0       0       0       0
  6849 ;;      Temps:          8       0       0       0       0       0       0
  6850 ;;      Totals:        10       0       0       0       0       0       0
  6851 ;;Total ram usage:       10 bytes
  6852 ;; Hardware stack levels used:    1
  6853 ;; Hardware stack levels required when called:    2
  6854 ;; This function calls:
  6855 ;;		i2_PrintVoltage
  6856 ;;		i2___awdiv
  6857 ;;		i2_strstr
  6858 ;; This function is called by:
  6859 ;;		Interrupt level 2
  6860 ;; This function uses a non-reentrant model
  6861 ;;
  6862                           psect	intcode,class=CODE,space=0,reloc=2
  6863                           global __pintcode
  6864                           __pintcode:
  6865  000008                     psect	intcode
  6866                           	file	"Problem3.c"
  6867                           	line	247
  6868                           	global	__size_of_Hi_ISR
  6869                           	__size_of_Hi_ISR	equ	__end_of_Hi_ISR-_Hi_ISR
  6870  0000                     	
  6871                           _Hi_ISR:; BSR set to: 0
  6872  000008                     
  6873                           ;incstack = 0
  6874                           	opt	stack 22
  6875                           	bsf int$flags,1,c ;set compiler interrupt flag (level 2)
  6876  000008  8253               	global	int_func
  6877                           	call	int_func,f	;refresh shadow registers
  6878  00000A  ED1E  F00D         psect	intcode_body,class=CODE,space=0,reloc=2
  6879                           global __pintcode_body
  6880                           __pintcode_body:
  6881  001A3C                     int_func:
  6882  001A3C                     
  6883                           	pop	; remove dummy address from shadow register refresh
  6884  001A3C  0006               	movff	fsr2l+0,??_Hi_ISR+0
  6885  001A3E  CFD9 F03B          	movff	fsr2h+0,??_Hi_ISR+1
  6886  001A42  CFDA F03C          	movff	prodl+0,??_Hi_ISR+2
  6887  001A46  CFF3 F03D          	movff	prodh+0,??_Hi_ISR+3
  6888  001A4A  CFF4 F03E          	movff	tblptrl+0,??_Hi_ISR+4
  6889  001A4E  CFF6 F03F          	movff	tblptrh+0,??_Hi_ISR+5
  6890  001A52  CFF7 F040          	movff	tblptru+0,??_Hi_ISR+6
  6891  001A56  CFF8 F041          	movff	tablat+0,??_Hi_ISR+7
  6892  001A5A  CFF5 F042          	line	250
  6893                           	
  6894                           i2l3018:
  6895  001A5E                     ;Problem3.c: 250:     if(PIR1bits.ADIF){
  6896                           	btfss	((c:3998)),c,6	;volatile
  6897  001A5E  AC9E               	goto	i2u276_41
  6898  001A60  EF34  F00D         	goto	i2u276_40
  6899  001A64  EF36  F00D         i2u276_41:
  6900  001A68                     	goto	i2l172
  6901  001A68  EF7F  F00D         i2u276_40:
  6902  001A6C                     	line	251
  6903                           	
  6904                           i2l3020:
  6905  001A6C                     ;Problem3.c: 251:         PIR1bits.ADIF = 0;
  6906                           	bcf	((c:3998)),c,6	;volatile
  6907  001A6C  9C9E               	line	252
  6908                           ;Problem3.c: 252:         ADCON0bits.ADON = 1;
  6909                           	bsf	((c:4034)),c,0	;volatile
  6910  001A6E  80C2               	line	255
  6911                           	
  6912                           i2l3022:
  6913  001A70                     ;Problem3.c: 255:         if(strstr(mystring, ".") == ((void*)0))
  6914                           		movlw	low(_mystring)
  6915  001A70  0ECB               	movwf	((c:i2strstr@h)),c
  6916  001A72  6E0E               	movlw	high(_mystring)
  6917  001A74  0E00               	movwf	((c:i2strstr@h+1)),c
  6918  001A76  6E0F               
  6919                           		movlw	low(STR_6)
  6920  001A78  0E20               	movwf	((c:i2strstr@n)),c
  6921  001A7A  6E10               	movlw	high(STR_6)
  6922  001A7C  0E06               	movwf	((c:i2strstr@n+1)),c
  6923  001A7E  6E11               
  6924                           	call	i2_strstr	;wreg free
  6925  001A80  EC69  F010         	movf	(0+?i2_strstr),c,w
  6926  001A84  500E               iorwf	(1+?i2_strstr),c,w
  6927  001A86  100F               	btfss	status,2
  6928  001A88  A4D8               	goto	i2u277_41
  6929  001A8A  EF49  F00D         	goto	i2u277_40
  6930  001A8E  EF4B  F00D         
  6931                           i2u277_41:
  6932  001A92                     	goto	i2l3026
  6933  001A92  EF4F  F00D         i2u277_40:
  6934  001A96                     	line	257
  6935                           	
  6936                           i2l3024:
  6937  001A96                     ;Problem3.c: 256:         {;Problem3.c: 257:             CCP2IE = 0;
  6938                           	bcf	c:(32000/8),(32000)&7	;volatile
  6939  001A96  90A0               	line	258
  6940                           ;Problem3.c: 258:             TMR3ON = 0;
  6941                           	bcf	c:(32136/8),(32136)&7	;volatile
  6942  001A98  90B1               	goto	i2l3026
  6943  001A9A  EF4F  F00D         	line	259
  6944                           ;Problem3.c: 259:         }
  6945                           	
  6946                           i2l173:
  6947  001A9E                     	line	263
  6948                           	
  6949                           i2l3026:
  6950  001A9E                     ;Problem3.c: 263:         sum+=ADRES;
  6951                           	movf	((c:4035)),c,w	;volatile
  6952  001A9E  50C3               	addwf	((c:_sum)),c
  6953  001AA0  264F               	movf	((c:4035+1)),c,w	;volatile
  6954  001AA2  50C4               	addwfc	((c:_sum+1)),c
  6955  001AA4  2250               
  6956                           	line	264
  6957                           	
  6958                           i2l3028:
  6959  001AA6                     ;Problem3.c: 264:         count++;
  6960                           	infsnz	((c:_count)),c
  6961  001AA6  4A51               	incf	((c:_count+1)),c
  6962  001AA8  2A52               	line	265
  6963                           	
  6964                           i2l3030:
  6965  001AAA                     ;Problem3.c: 265:         if(count == 4)
  6966                           		movlw	4
  6967  001AAA  0E04               	xorwf	((c:_count)),c,w
  6968  001AAC  1851               iorwf	((c:_count+1)),c,w
  6969  001AAE  1052               	btfss	status,2
  6970  001AB0  A4D8               	goto	i2u278_41
  6971  001AB2  EF5D  F00D         	goto	i2u278_40
  6972  001AB6  EF5F  F00D         
  6973                           i2u278_41:
  6974  001ABA                     	goto	i2l177
  6975  001ABA  EF91  F00D         i2u278_40:
  6976  001ABE                     	line	267
  6977                           	
  6978                           i2l3032:
  6979  001ABE                     ;Problem3.c: 266:         {;Problem3.c: 267:             PrintVoltage(sum/4);
  6980                           	movff	(c:_sum),(c:i2___awdiv@dividend)
  6981  001ABE  C04F  F001         	movff	(c:_sum+1),(c:i2___awdiv@dividend+1)
  6982  001AC2  C050  F002         	movlw	high(04h)
  6983  001AC6  0E00               	movwf	((c:i2___awdiv@divisor+1)),c
  6984  001AC8  6E04               	movlw	low(04h)
  6985  001ACA  0E04               	movwf	((c:i2___awdiv@divisor)),c
  6986  001ACC  6E03               	call	i2___awdiv	;wreg free
  6987  001ACE  EC17  F00F         	movff	0+?i2___awdiv,(c:_Hi_ISR$1820)
  6988  001AD2  C001  F043         	movff	1+?i2___awdiv,(c:_Hi_ISR$1820+1)
  6989  001AD6  C002  F044         	
  6990                           i2l3034:
  6991  001ADA                     ;Problem3.c: 266:         {;Problem3.c: 267:             PrintVoltage(sum/4);
  6992                           	movff	(c:_Hi_ISR$1820),(c:i2PrintVoltage@digital)
  6993  001ADA  C043  F032         	movff	(c:_Hi_ISR$1820+1),(c:i2PrintVoltage@digital+1)
  6994  001ADE  C044  F033         	call	i2_PrintVoltage	;wreg free
  6995  001AE2  ECC1  F008         	line	268
  6996                           	
  6997                           i2l3036:
  6998  001AE6                     ;Problem3.c: 268:             sum = 0;
  6999                           	movlw	high(0)
  7000  001AE6  0E00               	movwf	((c:_sum+1)),c
  7001  001AE8  6E50               	movlw	low(0)
  7002  001AEA  0E00               	movwf	((c:_sum)),c
  7003  001AEC  6E4F               	line	269
  7004                           	
  7005                           i2l3038:
  7006  001AEE                     ;Problem3.c: 269:             count = 0;
  7007                           	movlw	high(0)
  7008  001AEE  0E00               	movwf	((c:_count+1)),c
  7009  001AF0  6E52               	movlw	low(0)
  7010  001AF2  0E00               	movwf	((c:_count)),c
  7011  001AF4  6E51               	goto	i2l177
  7012  001AF6  EF91  F00D         	line	270
  7013                           ;Problem3.c: 270:         }
  7014                           	
  7015                           i2l174:
  7016  001AFA                     	line	271
  7017                           ;Problem3.c: 271:     }
  7018                           	goto	i2l177
  7019  001AFA  EF91  F00D         	line	272
  7020                           ;Problem3.c: 272:     else if(PIR2bits.CCP2IF){
  7021                           	
  7022                           i2l172:
  7023  001AFE                     	btfss	((c:4001)),c,0	;volatile
  7024  001AFE  A0A1               	goto	i2u279_41
  7025  001B00  EF84  F00D         	goto	i2u279_40
  7026  001B04  EF86  F00D         i2u279_41:
  7027  001B08                     	goto	i2l177
  7028  001B08  EF91  F00D         i2u279_40:
  7029  001B0C                     	line	273
  7030                           	
  7031                           i2l3040:
  7032  001B0C                     ;Problem3.c: 273:         PIR2bits.CCP2IF = 0;
  7033                           	bcf	((c:4001)),c,0	;volatile
  7034  001B0C  90A1               	line	274
  7035                           	
  7036                           i2l3042:
  7037  001B0E                     ;Problem3.c: 274:         CCPR2 = 31250;
  7038                           	movlw	high(07A12h)
  7039  001B0E  0E7A               	movwf	((c:4027+1)),c	;volatile
  7040  001B10  6EBC               	movlw	low(07A12h)
  7041  001B12  0E12               	movwf	((c:4027)),c	;volatile
  7042  001B14  6EBB               	goto	i2l177
  7043  001B16  EF91  F00D         	line	277
  7044                           ;Problem3.c: 277:     }
  7045                           	
  7046                           i2l176:
  7047  001B1A                     	goto	i2l177
  7048  001B1A  EF91  F00D         	
  7049                           i2l175:
  7050  001B1E                     	goto	i2l177
  7051  001B1E  EF91  F00D         	line	278
  7052                           	
  7053                           i2l3044:
  7054  001B22                     	line	279
  7055                           ;Problem3.c: 278:     return ;
  7056                           	
  7057                           i2l177:
  7058  001B22                     	movff	??_Hi_ISR+7,tablat+0
  7059  001B22  C042  FFF5         	movff	??_Hi_ISR+6,tblptru+0
  7060  001B26  C041  FFF8         	movff	??_Hi_ISR+5,tblptrh+0
  7061  001B2A  C040  FFF7         	movff	??_Hi_ISR+4,tblptrl+0
  7062  001B2E  C03F  FFF6         	movff	??_Hi_ISR+3,prodh+0
  7063  001B32  C03E  FFF4         	movff	??_Hi_ISR+2,prodl+0
  7064  001B36  C03D  FFF3         	movff	??_Hi_ISR+1,fsr2h+0
  7065  001B3A  C03C  FFDA         	movff	??_Hi_ISR+0,fsr2l+0
  7066  001B3E  C03B  FFD9         	bcf int$flags,1,c ;clear compiler interrupt flag (level 2)
  7067  001B42  9253               	retfie f
  7068  001B44  0011               	opt stack 0
  7069                           GLOBAL	__end_of_Hi_ISR
  7070                           	__end_of_Hi_ISR:
  7071  001B46                     	signat	_Hi_ISR,89
  7072                           	global	i2_strstr
  7073                           
  7074 ;; *************** function i2_strstr *****************
  7075 ;; Defined at:
  7076 ;;		line 143 in file "C:\Program Files (x86)\Microchip\xc8\v2.00\pic\sources\c99\common\strstr.c"
  7077 ;; Parameters:    Size  Location     Type
  7078 ;;  h               2   13[COMRAM] PTR const unsigned char 
  7079 ;;		 -> NULL(0), mystring(10), 
  7080 ;;  n               2   15[COMRAM] PTR const unsigned char 
  7081 ;;		 -> STR_6(2), STR_5(5), STR_4(6), STR_3(6), 
  7082 ;;		 -> STR_2(2), 
  7083 ;; Auto vars:     Size  Location     Type
  7084 ;;  strstr          2   17[COMRAM] unsigned int 
  7085 ;; Return value:  Size  Location     Type
  7086 ;;                  2   13[COMRAM] PTR unsigned char 
  7087 ;; Registers used:
  7088 ;;		wreg, fsr2l, fsr2h, status,2, status,0, tblptrl, tblptrh, tblptru, cstack
  7089 ;; Tracked objects:
  7090 ;;		On entry : 0/0
  7091 ;;		On exit  : 0/0
  7092 ;;		Unchanged: 0/0
  7093 ;; Data sizes:     COMRAM   BANK0   BANK1   BANK2   BANK3   BANK4   BANK5
  7094 ;;      Params:         4       0       0       0       0       0       0
  7095 ;;      Locals:         2       0       0       0       0       0       0
  7096 ;;      Temps:          0       0       0       0       0       0       0
  7097 ;;      Totals:         6       0       0       0       0       0       0
  7098 ;;Total ram usage:        6 bytes
  7099 ;; Hardware stack levels used:    1
  7100 ;; Hardware stack levels required when called:    1
  7101 ;; This function calls:
  7102 ;;		i2_strchr
  7103 ;;		i2_strlen
  7104 ;;		i2_strncmp
  7105 ;; This function is called by:
  7106 ;;		_Hi_ISR
  7107 ;; This function uses a non-reentrant model
  7108 ;;
  7109                           psect	text28,class=CODE,space=0,reloc=2,group=0
  7110                           	file	"C:\Program Files (x86)\Microchip\xc8\v2.00\pic\sources\c99\common\strstr.c"
  7111                           	line	143
  7112                           global __ptext28
  7113                           __ptext28:
  7114  0020D2                     psect	text28
  7115                           	file	"C:\Program Files (x86)\Microchip\xc8\v2.00\pic\sources\c99\common\strstr.c"
  7116                           	line	143
  7117                           	global	__size_ofi2_strstr
  7118                           	__size_ofi2_strstr	equ	__end_ofi2_strstr-i2_strstr
  7119  0000                     	
  7120                           i2_strstr:
  7121  0020D2                     ;incstack = 0
  7122                           	opt	stack 22
  7123                           	line	146
  7124                           	
  7125                           i2l2942:
  7126  0020D2                     	movf	((c:i2strstr@n)),c,w
  7127  0020D2  5010               iorwf	((c:i2strstr@n+1)),c,w
  7128  0020D4  1011               	btfsc	status,2
  7129  0020D6  B4D8               	goto	i2u265_41
  7130  0020D8  EF70  F010         	goto	i2u265_40
  7131  0020DC  EF72  F010         
  7132                           i2u265_41:
  7133  0020E0                     	goto	i2l2958
  7134  0020E0  EFCE  F010         i2u265_40:
  7135  0020E4                     	line	147
  7136                           	
  7137                           i2l2944:
  7138  0020E4                     		movff	(c:i2strstr@n),(c:i2strlen@s)
  7139  0020E4  C010  F001         	movff	(c:i2strstr@n+1),(c:i2strlen@s+1)
  7140  0020E8  C011  F002         
  7141                           	call	i2_strlen	;wreg free
  7142  0020EC  ECEC  F011         	movff	0+?i2_strlen,(c:i2strstr@nl)
  7143  0020F0  C001  F012         	movff	1+?i2_strlen,(c:i2strstr@nl+1)
  7144  0020F4  C002  F013         	line	148
  7145                           	goto	i2l2954
  7146  0020F8  EFB3  F010         	
  7147                           i2l922:
  7148  0020FC                     	line	149
  7149                           	
  7150                           i2l2946:
  7151  0020FC                     		movff	(c:i2strstr@h),(c:i2strncmp@_l)
  7152  0020FC  C00E  F001         	movff	(c:i2strstr@h+1),(c:i2strncmp@_l+1)
  7153  002100  C00F  F002         
  7154                           		movff	(c:i2strstr@n),(c:i2strncmp@_r)
  7155  002104  C010  F003         	movff	(c:i2strstr@n+1),(c:i2strncmp@_r+1)
  7156  002108  C011  F004         
  7157                           	movff	(c:i2strstr@nl),(c:i2strncmp@n)
  7158  00210C  C012  F005         	movff	(c:i2strstr@nl+1),(c:i2strncmp@n+1)
  7159  002110  C013  F006         	call	i2_strncmp	;wreg free
  7160  002114  EC22  F00E         	movf	(0+?i2_strncmp),c,w
  7161  002118  5001               iorwf	(1+?i2_strncmp),c,w
  7162  00211A  1002               	btfss	status,2
  7163  00211C  A4D8               	goto	i2u266_41
  7164  00211E  EF93  F010         	goto	i2u266_40
  7165  002122  EF95  F010         
  7166                           i2u266_41:
  7167  002126                     	goto	i2l2952
  7168  002126  EF9D  F010         i2u266_40:
  7169  00212A                     	line	150
  7170                           	
  7171                           i2l2948:
  7172  00212A                     		movff	(c:i2strstr@h),(c:?i2_strstr)
  7173  00212A  C00E  F00E         	movff	(c:i2strstr@h+1),(c:?i2_strstr+1)
  7174  00212E  C00F  F00F         
  7175                           	goto	i2l924
  7176  002132  EFD4  F010         	
  7177                           i2l2950:
  7178  002136                     	goto	i2l924
  7179  002136  EFD4  F010         	
  7180                           i2l923:
  7181  00213A                     	line	151
  7182                           	
  7183                           i2l2952:
  7184  00213A                     	movlw	low(01h)
  7185  00213A  0E01               	addwf	((c:i2strstr@h)),c,w
  7186  00213C  240E               	movwf	((c:i2strchr@s)),c
  7187  00213E  6E01               	movlw	high(01h)
  7188  002140  0E00               	addwfc	((c:i2strstr@h+1)),c,w
  7189  002142  200F               	movwf	1+((c:i2strchr@s)),c
  7190  002144  6E02               	movff	(c:i2strstr@n),tblptrl
  7191  002146  C010  FFF6         	movff	(c:i2strstr@n+1),tblptrh
  7192  00214A  C011  FFF7         	if	0	;tblptru may be non-zero
  7193  00214E                     	clrf	tblptru
  7195  00214E                     	if	0	;tblptru may be non-zero
  7196  00214E                     	global __mediumconst
  7197                           movlw	low highword(__mediumconst)
  7200  00214E                     	tblrd	*
  7201  00214E  0008               	
  7202                           	movf	tablat,w
  7203  002150  50F5               
  7204                           	movwf	((c:i2strchr@c)),c
  7205  002152  6E03               	clrf	((c:i2strchr@c+1)),c
  7206  002154  6A04               	call	i2_strchr	;wreg free
  7207  002156  ECC0  F011         	movff	0+?i2_strchr,(c:i2strstr@h)
  7208  00215A  C001  F00E         	movff	1+?i2_strchr,(c:i2strstr@h+1)
  7209  00215E  C002  F00F         	goto	i2l2954
  7210  002162  EFB3  F010         	line	152
  7211                           	
  7212                           i2l921:
  7213  002166                     	line	148
  7214                           	
  7215                           i2l2954:
  7216  002166                     	movf	((c:i2strstr@h)),c,w
  7217  002166  500E               iorwf	((c:i2strstr@h+1)),c,w
  7218  002168  100F               	btfsc	status,2
  7219  00216A  B4D8               	goto	i2u267_41
  7220  00216C  EFBA  F010         	goto	i2u267_40
  7221  002170  EFBC  F010         
  7222                           i2u267_41:
  7223  002174                     	goto	i2l2958
  7224  002174  EFCE  F010         i2u267_40:
  7225  002178                     	
  7226                           i2l2956:
  7227  002178                     	movff	(c:i2strstr@h),fsr2l
  7228  002178  C00E  FFD9         	movff	(c:i2strstr@h+1),fsr2h
  7229  00217C  C00F  FFDA         	movf	indf2,w
  7230  002180  50DF               	btfss	status,2
  7231  002182  A4D8               	goto	i2u268_41
  7232  002184  EFC6  F010         	goto	i2u268_40
  7233  002188  EFC8  F010         i2u268_41:
  7234  00218C                     	goto	i2l2946
  7235  00218C  EF7E  F010         i2u268_40:
  7236  002190                     	goto	i2l2958
  7237  002190  EFCE  F010         	
  7238                           i2l926:
  7239  002194                     	goto	i2l2958
  7240  002194  EFCE  F010         	
  7241                           i2l927:
  7242  002198                     	goto	i2l2958
  7243  002198  EFCE  F010         	line	153
  7244                           	
  7245                           i2l920:
  7246  00219C                     	line	154
  7247                           	
  7248                           i2l2958:
  7249  00219C                     		movlw	low(0)
  7250  00219C  0E00               	movwf	((c:?i2_strstr)),c
  7251  00219E  6E0E               	movlw	high(0)
  7252  0021A0  0E00               	movwf	((c:?i2_strstr+1)),c
  7253  0021A2  6E0F               
  7254                           	goto	i2l924
  7255  0021A4  EFD4  F010         	
  7256                           i2l2960:
  7257  0021A8                     	line	171
  7258                           	
  7259                           i2l924:
  7260  0021A8                     	return	;funcret
  7261  0021A8  0012               	opt stack 0
  7262                           GLOBAL	__end_ofi2_strstr
  7263                           	__end_ofi2_strstr:
  7264  0021AA                     	signat	i2_strstr,90
  7265                           	global	i2_strncmp
  7266                           
  7267 ;; *************** function i2_strncmp *****************
  7268 ;; Defined at:
  7269 ;;		line 3 in file "C:\Program Files (x86)\Microchip\xc8\v2.00\pic\sources\c99\common\strncmp.c"
  7270 ;; Parameters:    Size  Location     Type
  7271 ;;  _l              2    0[COMRAM] PTR const unsigned char 
  7272 ;;		 -> NULL(0), mystring(10), 
  7273 ;;  _r              2    2[COMRAM] PTR const unsigned char 
  7274 ;;		 -> STR_6(2), STR_5(5), STR_4(6), STR_3(6), 
  7275 ;;		 -> STR_2(2), 
  7276 ;;  n               2    4[COMRAM] unsigned int 
  7277 ;; Auto vars:     Size  Location     Type
  7278 ;;  strncmp         2   11[COMRAM] PTR const unsigned char 
  7279 ;;		 -> STR_6(2), STR_5(5), STR_4(6), STR_3(6), 
  7280 ;;		 -> STR_2(2), 
  7281 ;;  strncmp         2    9[COMRAM] PTR const unsigned char 
  7282 ;;		 -> NULL(0), mystring(10), 
  7283 ;; Return value:  Size  Location     Type
  7284 ;;                  2    0[COMRAM] int 
  7285 ;; Registers used:
  7286 ;;		wreg, fsr2l, fsr2h, status,2, status,0, tblptrl, tblptrh, tblptru
  7287 ;; Tracked objects:
  7288 ;;		On entry : 0/0
  7289 ;;		On exit  : 0/0
  7290 ;;		Unchanged: 0/0
  7291 ;; Data sizes:     COMRAM   BANK0   BANK1   BANK2   BANK3   BANK4   BANK5
  7292 ;;      Params:         6       0       0       0       0       0       0
  7293 ;;      Locals:         4       0       0       0       0       0       0
  7294 ;;      Temps:          3       0       0       0       0       0       0
  7295 ;;      Totals:        13       0       0       0       0       0       0
  7296 ;;Total ram usage:       13 bytes
  7297 ;; Hardware stack levels used:    1
  7298 ;; This function calls:
  7299 ;;		Nothing
  7300 ;; This function is called by:
  7301 ;;		i2_strstr
  7302 ;; This function uses a non-reentrant model
  7303 ;;
  7304                           psect	text29,class=CODE,space=0,reloc=2,group=0
  7305                           	file	"C:\Program Files (x86)\Microchip\xc8\v2.00\pic\sources\c99\common\strncmp.c"
  7306                           	line	3
  7307                           global __ptext29
  7308                           __ptext29:
  7309  001C44                     psect	text29
  7310                           	file	"C:\Program Files (x86)\Microchip\xc8\v2.00\pic\sources\c99\common\strncmp.c"
  7311                           	line	3
  7312                           	global	__size_ofi2_strncmp
  7313                           	__size_ofi2_strncmp	equ	__end_ofi2_strncmp-i2_strncmp
  7314  0000                     	
  7315                           i2_strncmp:
  7316  001C44                     ;incstack = 0
  7317                           	opt	stack 22
  7318                           	line	5
  7319                           	
  7320                           i2l2772:
  7321  001C44                     		movff	(c:i2strncmp@_l),(c:i2strncmp@l)
  7322  001C44  C001  F00A         	movff	(c:i2strncmp@_l+1),(c:i2strncmp@l+1)
  7323  001C48  C002  F00B         
  7324                           		movff	(c:i2strncmp@_r),(c:i2strncmp@r)
  7325  001C4C  C003  F00C         	movff	(c:i2strncmp@_r+1),(c:i2strncmp@r+1)
  7326  001C50  C004  F00D         
  7327                           	line	6
  7328                           	decf	((c:i2strncmp@n)),c
  7329  001C54  0605               	btfss	status,0
  7330  001C56  A0D8               	decf	((c:i2strncmp@n+1)),c
  7331  001C58  0606               		incf	((c:i2strncmp@n)),c,w
  7332  001C5A  2805               	bnz	i2u254_41
  7333  001C5C  E106               	incf	((c:i2strncmp@n+1)),c,w
  7334  001C5E  2806               	btfss	status,2
  7335  001C60  A4D8               	goto	i2u254_41
  7336  001C62  EF35  F00E         	goto	i2u254_40
  7337  001C66  EF37  F00E         
  7338                           i2u254_41:
  7339  001C6A                     	goto	i2l2780
  7340  001C6A  EF4A  F00E         i2u254_40:
  7341  001C6E                     	
  7342                           i2l2774:
  7343  001C6E                     	movlw	high(0)
  7344  001C6E  0E00               	movwf	((c:?i2_strncmp+1)),c
  7345  001C70  6E02               	movlw	low(0)
  7346  001C72  0E00               	movwf	((c:?i2_strncmp)),c
  7347  001C74  6E01               	goto	i2l943
  7348  001C76  EF9F  F00E         	
  7349                           i2l2776:
  7350  001C7A                     	goto	i2l943
  7351  001C7A  EF9F  F00E         	
  7352                           i2l942:
  7353  001C7E                     	line	7
  7354                           	goto	i2l2780
  7355  001C7E  EF4A  F00E         	
  7356                           i2l945:
  7357  001C82                     	
  7358                           i2l2778:
  7359  001C82                     	infsnz	((c:i2strncmp@l)),c
  7360  001C82  4A0A               	incf	((c:i2strncmp@l+1)),c
  7361  001C84  2A0B               	infsnz	((c:i2strncmp@r)),c
  7362  001C86  4A0C               	incf	((c:i2strncmp@r+1)),c
  7363  001C88  2A0D               	decf	((c:i2strncmp@n)),c
  7364  001C8A  0605               	btfss	status,0
  7365  001C8C  A0D8               	decf	((c:i2strncmp@n+1)),c
  7366  001C8E  0606               	goto	i2l2780
  7367  001C90  EF4A  F00E         	
  7368                           i2l944:
  7369  001C94                     	
  7370                           i2l2780:
  7371  001C94                     	movff	(c:i2strncmp@l),fsr2l
  7372  001C94  C00A  FFD9         	movff	(c:i2strncmp@l+1),fsr2h
  7373  001C98  C00B  FFDA         	movf	indf2,w
  7374  001C9C  50DF               	btfsc	status,2
  7375  001C9E  B4D8               	goto	i2u255_41
  7376  001CA0  EF54  F00E         	goto	i2u255_40
  7377  001CA4  EF56  F00E         i2u255_41:
  7378  001CA8                     	goto	i2l2788
  7379  001CA8  EF85  F00E         i2u255_40:
  7380  001CAC                     	
  7381                           i2l2782:
  7382  001CAC                     	movff	(c:i2strncmp@r),tblptrl
  7383  001CAC  C00C  FFF6         	movff	(c:i2strncmp@r+1),tblptrh
  7384  001CB0  C00D  FFF7         	if	0	;tblptru may be non-zero
  7385  001CB4                     	clrf	tblptru
  7387  001CB4                     	if	0	;tblptru may be non-zero
  7388  001CB4                     	global __mediumconst
  7389                           movlw	low highword(__mediumconst)
  7392  001CB4                     	tblrd	*
  7393  001CB4  0008               	
  7394                           	movf	tablat,w
  7395  001CB6  50F5               	iorlw	0
  7396  001CB8  0900               	btfsc	status,2
  7397  001CBA  B4D8               	goto	i2u256_41
  7398  001CBC  EF62  F00E         	goto	i2u256_40
  7399  001CC0  EF64  F00E         i2u256_41:
  7400  001CC4                     	goto	i2l2788
  7401  001CC4  EF85  F00E         i2u256_40:
  7402  001CC8                     	
  7403                           i2l2784:
  7404  001CC8                     	movf	((c:i2strncmp@n)),c,w
  7405  001CC8  5005               iorwf	((c:i2strncmp@n+1)),c,w
  7406  001CCA  1006               	btfsc	status,2
  7407  001CCC  B4D8               	goto	i2u257_41
  7408  001CCE  EF6B  F00E         	goto	i2u257_40
  7409  001CD2  EF6D  F00E         
  7410                           i2u257_41:
  7411  001CD6                     	goto	i2l2788
  7412  001CD6  EF85  F00E         i2u257_40:
  7413  001CDA                     	
  7414                           i2l2786:
  7415  001CDA                     	movff	(c:i2strncmp@l),fsr2l
  7416  001CDA  C00A  FFD9         	movff	(c:i2strncmp@l+1),fsr2h
  7417  001CDE  C00B  FFDA         	movf	indf2,w
  7418  001CE2  50DF               	movwf	(??i2_strncmp+0+0)&0ffh,c
  7419  001CE4  6E07               	movff	(c:i2strncmp@r),tblptrl
  7420  001CE6  C00C  FFF6         	movff	(c:i2strncmp@r+1),tblptrh
  7421  001CEA  C00D  FFF7         	if	0	;tblptru may be non-zero
  7422  001CEE                     	clrf	tblptru
  7424  001CEE                     	if	0	;tblptru may be non-zero
  7425  001CEE                     	global __mediumconst
  7426                           movlw	low highword(__mediumconst)
  7429  001CEE                     	tblrd	*
  7430  001CEE  0008               	
  7431                           	movf	tablat,w
  7432  001CF0  50F5               	xorwf	((??i2_strncmp+0+0)),c,w
  7433  001CF2  1807               
  7434                           	btfsc	status,2
  7435  001CF4  B4D8               	goto	i2u258_41
  7436  001CF6  EF7F  F00E         	goto	i2u258_40
  7437  001CFA  EF81  F00E         i2u258_41:
  7438  001CFE                     	goto	i2l2778
  7439  001CFE  EF41  F00E         i2u258_40:
  7440  001D02                     	goto	i2l2788
  7441  001D02  EF85  F00E         	
  7442                           i2l947:
  7443  001D06                     	goto	i2l2788
  7444  001D06  EF85  F00E         	
  7445                           i2l948:
  7446  001D0A                     	line	8
  7447                           	
  7448                           i2l2788:
  7449  001D0A                     	movff	(c:i2strncmp@r),tblptrl
  7450  001D0A  C00C  FFF6         	movff	(c:i2strncmp@r+1),tblptrh
  7451  001D0E  C00D  FFF7         	if	0	;tblptru may be non-zero
  7452  001D12                     	clrf	tblptru
  7454  001D12                     	if	0	;tblptru may be non-zero
  7455  001D12                     	global __mediumconst
  7456                           movlw	low highword(__mediumconst)
  7459  001D12                     	tblrd	*
  7460  001D12  0008               	
  7461                           	movf	tablat,w
  7462  001D14  50F5               	movwf	(??i2_strncmp+0+0)&0ffh,c
  7463  001D16  6E07               	clrf	(??i2_strncmp+0+0+1)&0ffh,c
  7464  001D18  6A08               
  7465                           	comf	(??i2_strncmp+0+0),c
  7466  001D1A  1E07               	comf	(??i2_strncmp+0+1),c
  7467  001D1C  1E08               	infsnz	(??i2_strncmp+0+0),c
  7468  001D1E  4A07               	incf	(??i2_strncmp+0+1),c
  7469  001D20  2A08               	movff	(c:i2strncmp@l),fsr2l
  7470  001D22  C00A  FFD9         	movff	(c:i2strncmp@l+1),fsr2h
  7471  001D26  C00B  FFDA         	movf	indf2,w
  7472  001D2A  50DF               	movwf	(??i2_strncmp+2+0)&0ffh,c
  7473  001D2C  6E09               	movf	((??i2_strncmp+2+0)),c,w
  7474  001D2E  5009               	addwf	(??i2_strncmp+0+0),c,w
  7475  001D30  2407               	movwf	((c:?i2_strncmp)),c
  7476  001D32  6E01               	movlw	0
  7477  001D34  0E00               	addwfc	(??i2_strncmp+0+1),c,w
  7478  001D36  2008               	movwf	1+((c:?i2_strncmp)),c
  7479  001D38  6E02               	goto	i2l943
  7480  001D3A  EF9F  F00E         	
  7481                           i2l2790:
  7482  001D3E                     	line	9
  7483                           	
  7484                           i2l943:
  7485  001D3E                     	return	;funcret
  7486  001D3E  0012               	opt stack 0
  7487                           GLOBAL	__end_ofi2_strncmp
  7488                           	__end_ofi2_strncmp:
  7489  001D40                     	signat	i2_strncmp,90
  7490                           	global	i2_strlen
  7491                           
  7492 ;; *************** function i2_strlen *****************
  7493 ;; Defined at:
  7494 ;;		line 12 in file "C:\Program Files (x86)\Microchip\xc8\v2.00\pic\sources\c99\common\strlen.c"
  7495 ;; Parameters:    Size  Location     Type
  7496 ;;  s               2    0[COMRAM] PTR const unsigned char 
  7497 ;;		 -> STR_6(2), STR_5(5), STR_4(6), STR_3(6), 
  7498 ;;		 -> STR_2(2), 
  7499 ;; Auto vars:     Size  Location     Type
  7500 ;;  strlen          2    4[COMRAM] PTR const unsigned char 
  7501 ;;		 -> STR_6(2), STR_5(5), STR_4(6), STR_3(6), 
  7502 ;;		 -> STR_2(2), 
  7503 ;; Return value:  Size  Location     Type
  7504 ;;                  2    0[COMRAM] unsigned int 
  7505 ;; Registers used:
  7506 ;;		wreg, status,2, status,0, tblptrl, tblptrh, tblptru
  7507 ;; Tracked objects:
  7508 ;;		On entry : 0/0
  7509 ;;		On exit  : 0/0
  7510 ;;		Unchanged: 0/0
  7511 ;; Data sizes:     COMRAM   BANK0   BANK1   BANK2   BANK3   BANK4   BANK5
  7512 ;;      Params:         2       0       0       0       0       0       0
  7513 ;;      Locals:         2       0       0       0       0       0       0
  7514 ;;      Temps:          2       0       0       0       0       0       0
  7515 ;;      Totals:         6       0       0       0       0       0       0
  7516 ;;Total ram usage:        6 bytes
  7517 ;; Hardware stack levels used:    1
  7518 ;; This function calls:
  7519 ;;		Nothing
  7520 ;; This function is called by:
  7521 ;;		i2_strstr
  7522 ;; This function uses a non-reentrant model
  7523 ;;
  7524                           psect	text30,class=CODE,space=0,reloc=2,group=0
  7525                           	file	"C:\Program Files (x86)\Microchip\xc8\v2.00\pic\sources\c99\common\strlen.c"
  7526                           	line	12
  7527                           global __ptext30
  7528                           __ptext30:
  7529  0023D8                     psect	text30
  7530                           	file	"C:\Program Files (x86)\Microchip\xc8\v2.00\pic\sources\c99\common\strlen.c"
  7531                           	line	12
  7532                           	global	__size_ofi2_strlen
  7533                           	__size_ofi2_strlen	equ	__end_ofi2_strlen-i2_strlen
  7534  0000                     	
  7535                           i2_strlen:
  7536  0023D8                     ;incstack = 0
  7537                           	opt	stack 22
  7538                           	line	14
  7539                           	
  7540                           i2l2762:
  7541  0023D8                     		movff	(c:i2strlen@s),(c:i2strlen@a)
  7542  0023D8  C001  F005         	movff	(c:i2strlen@s+1),(c:i2strlen@a+1)
  7543  0023DC  C002  F006         
  7544                           	line	16
  7545                           	goto	i2l2766
  7546  0023E0  EFF6  F011         	
  7547                           i2l937:
  7548  0023E4                     	line	17
  7549                           	
  7550                           i2l2764:
  7551  0023E4                     	infsnz	((c:i2strlen@s)),c
  7552  0023E4  4A01               	incf	((c:i2strlen@s+1)),c
  7553  0023E6  2A02               	goto	i2l2766
  7554  0023E8  EFF6  F011         	line	18
  7555                           	
  7556                           i2l936:
  7557  0023EC                     	line	16
  7558                           	
  7559                           i2l2766:
  7560  0023EC                     	movff	(c:i2strlen@s),tblptrl
  7561  0023EC  C001  FFF6         	movff	(c:i2strlen@s+1),tblptrh
  7562  0023F0  C002  FFF7         	if	0	;tblptru may be non-zero
  7563  0023F4                     	clrf	tblptru
  7565  0023F4                     	if	0	;tblptru may be non-zero
  7566  0023F4                     	global __mediumconst
  7567                           movlw	low highword(__mediumconst)
  7570  0023F4                     	tblrd	*
  7571  0023F4  0008               	
  7572                           	movf	tablat,w
  7573  0023F6  50F5               	iorlw	0
  7574  0023F8  0900               	btfss	status,2
  7575  0023FA  A4D8               	goto	i2u253_41
  7576  0023FC  EF02  F012         	goto	i2u253_40
  7577  002400  EF04  F012         i2u253_41:
  7578  002404                     	goto	i2l2764
  7579  002404  EFF2  F011         i2u253_40:
  7580  002408                     	goto	i2l2768
  7581  002408  EF06  F012         	
  7582                           i2l938:
  7583  00240C                     	line	25
  7584                           	
  7585                           i2l2768:
  7586  00240C                     	movff	(c:i2strlen@a),??i2_strlen+0+0
  7587  00240C  C005  F003         	movff	(c:i2strlen@a+1),??i2_strlen+0+0+1
  7588  002410  C006  F004         	comf	(??i2_strlen+0+0),c
  7589  002414  1E03               	comf	(??i2_strlen+0+1),c
  7590  002416  1E04               	infsnz	(??i2_strlen+0+0),c
  7591  002418  4A03               	incf	(??i2_strlen+0+1),c
  7592  00241A  2A04               	movf	((c:i2strlen@s)),c,w
  7593  00241C  5001               	addwf	(??i2_strlen+0+0),c,w
  7594  00241E  2403               	movwf	((c:?i2_strlen)),c
  7595  002420  6E01               	movf	((c:i2strlen@s+1)),c,w
  7596  002422  5002               	addwfc	(??i2_strlen+0+1),c,w
  7597  002424  2004               	movwf	1+((c:?i2_strlen)),c
  7598  002426  6E02               	goto	i2l939
  7599  002428  EF16  F012         	
  7600                           i2l2770:
  7601  00242C                     	line	26
  7602                           	
  7603                           i2l939:
  7604  00242C                     	return	;funcret
  7605  00242C  0012               	opt stack 0
  7606                           GLOBAL	__end_ofi2_strlen
  7607                           	__end_ofi2_strlen:
  7608  00242E                     	signat	i2_strlen,90
  7609                           	global	i2_strchr
  7610                           
  7611 ;; *************** function i2_strchr *****************
  7612 ;; Defined at:
  7613 ;;		line 7 in file "C:\Program Files (x86)\Microchip\xc8\v2.00\pic\sources\c99\common\strchr.c"
  7614 ;; Parameters:    Size  Location     Type
  7615 ;;  s               2    0[COMRAM] PTR const unsigned char 
  7616 ;;		 -> NULL(0), mystring(10), 
  7617 ;;  c               2    2[COMRAM] int 
  7618 ;; Auto vars:     Size  Location     Type
  7619 ;;		None
  7620 ;; Return value:  Size  Location     Type
  7621 ;;                  2    0[COMRAM] PTR unsigned char 
  7622 ;; Registers used:
  7623 ;;		wreg, fsr2l, fsr2h, status,2, status,0
  7624 ;; Tracked objects:
  7625 ;;		On entry : 0/0
  7626 ;;		On exit  : 0/0
  7627 ;;		Unchanged: 0/0
  7628 ;; Data sizes:     COMRAM   BANK0   BANK1   BANK2   BANK3   BANK4   BANK5
  7629 ;;      Params:         4       0       0       0       0       0       0
  7630 ;;      Locals:         0       0       0       0       0       0       0
  7631 ;;      Temps:          1       0       0       0       0       0       0
  7632 ;;      Totals:         5       0       0       0       0       0       0
  7633 ;;Total ram usage:        5 bytes
  7634 ;; Hardware stack levels used:    1
  7635 ;; This function calls:
  7636 ;;		Nothing
  7637 ;; This function is called by:
  7638 ;;		i2_strstr
  7639 ;; This function uses a non-reentrant model
  7640 ;;
  7641                           psect	text31,class=CODE,space=0,reloc=2,group=0
  7642                           	file	"C:\Program Files (x86)\Microchip\xc8\v2.00\pic\sources\c99\common\strchr.c"
  7643                           	line	7
  7644                           global __ptext31
  7645                           __ptext31:
  7646  002380                     psect	text31
  7647                           	file	"C:\Program Files (x86)\Microchip\xc8\v2.00\pic\sources\c99\common\strchr.c"
  7648                           	line	7
  7649                           	global	__size_ofi2_strchr
  7650                           	__size_ofi2_strchr	equ	__end_ofi2_strchr-i2_strchr
  7651  0000                     	
  7652                           i2_strchr:
  7653  002380                     ;incstack = 0
  7654                           	opt	stack 22
  7655                           	line	13
  7656                           	
  7657                           i2l930:
  7658  002380                     	line	14
  7659                           	
  7660                           i2l2750:
  7661  002380                     	movff	(c:i2strchr@s),fsr2l
  7662  002380  C001  FFD9         	movff	(c:i2strchr@s+1),fsr2h
  7663  002384  C002  FFDA         	movf	((c:i2strchr@c)),c,w
  7664  002388  5003               xorwf	postinc2,w
  7665  00238A  18DE               	btfss	status,2
  7666  00238C  A4D8               	goto	i2u251_41
  7667  00238E  EFCB  F011         	goto	i2u251_40
  7668  002392  EFCD  F011         
  7669                           i2u251_41:
  7670  002396                     	goto	i2l2756
  7671  002396  EFD5  F011         i2u251_40:
  7672  00239A                     	line	15
  7673                           	
  7674                           i2l2752:
  7675  00239A                     		movff	(c:i2strchr@s),(c:?i2_strchr)
  7676  00239A  C001  F001         	movff	(c:i2strchr@s+1),(c:?i2_strchr+1)
  7677  00239E  C002  F002         
  7678                           	goto	i2l932
  7679  0023A2  EFEB  F011         	
  7680                           i2l2754:
  7681  0023A6                     	goto	i2l932
  7682  0023A6  EFEB  F011         	line	16
  7683                           	
  7684                           i2l931:
  7685  0023AA                     	line	17
  7686                           	
  7687                           i2l2756:
  7688  0023AA                     	movff	(c:i2strchr@s),fsr2l
  7689  0023AA  C001  FFD9         	movff	(c:i2strchr@s+1),fsr2h
  7690  0023AE  C002  FFDA         	infsnz	((c:i2strchr@s)),c
  7691  0023B2  4A01               	incf	((c:i2strchr@s+1)),c
  7692  0023B4  2A02               	movf	indf2,w
  7693  0023B6  50DF               	btfss	status,2
  7694  0023B8  A4D8               	goto	i2u252_41
  7695  0023BA  EFE1  F011         	goto	i2u252_40
  7696  0023BE  EFE3  F011         i2u252_41:
  7697  0023C2                     	goto	i2l930
  7698  0023C2  EFC0  F011         i2u252_40:
  7699  0023C6                     	goto	i2l2758
  7700  0023C6  EFE5  F011         	
  7701                           i2l933:
  7702  0023CA                     	line	18
  7703                           	
  7704                           i2l2758:
  7705  0023CA                     		movlw	low(0)
  7706  0023CA  0E00               	movwf	((c:?i2_strchr)),c
  7707  0023CC  6E01               	movlw	high(0)
  7708  0023CE  0E00               	movwf	((c:?i2_strchr+1)),c
  7709  0023D0  6E02               
  7710                           	goto	i2l932
  7711  0023D2  EFEB  F011         	
  7712                           i2l2760:
  7713  0023D6                     	line	20
  7714                           	
  7715                           i2l932:
  7716  0023D6                     	return	;funcret
  7717  0023D6  0012               	opt stack 0
  7718                           GLOBAL	__end_ofi2_strchr
  7719                           	__end_ofi2_strchr:
  7720  0023D8                     	signat	i2_strchr,90
  7721                           	global	i2_PrintVoltage
  7722                           
  7723 ;; *************** function i2_PrintVoltage *****************
  7724 ;; Defined at:
  7725 ;;		line 201 in file "Problem3.c"
  7726 ;; Parameters:    Size  Location     Type
  7727 ;;  digital         2   49[COMRAM] int 
  7728 ;; Auto vars:     Size  Location     Type
  7729 ;;  PrintVoltage    4   51[COMRAM] float 
  7730 ;;  PrintVoltage    2   56[COMRAM] int 
  7731 ;;  PrintVoltage    1   55[COMRAM] unsigned char 
  7732 ;; Return value:  Size  Location     Type
  7733 ;;                  1    wreg      void 
  7734 ;; Registers used:
  7735 ;;		wreg, status,2, status,0, prodl, prodh, cstack
  7736 ;; Tracked objects:
  7737 ;;		On entry : 0/0
  7738 ;;		On exit  : 0/0
  7739 ;;		Unchanged: 0/0
  7740 ;; Data sizes:     COMRAM   BANK0   BANK1   BANK2   BANK3   BANK4   BANK5
  7741 ;;      Params:         2       0       0       0       0       0       0
  7742 ;;      Locals:         7       0       0       0       0       0       0
  7743 ;;      Temps:          0       0       0       0       0       0       0
  7744 ;;      Totals:         9       0       0       0       0       0       0
  7745 ;;Total ram usage:        9 bytes
  7746 ;; Hardware stack levels used:    1
  7747 ;; Hardware stack levels required when called:    1
  7748 ;; This function calls:
  7749 ;;		i2_UART_Write
  7750 ;;		i2___awdiv
  7751 ;;		i2___flmul
  7752 ;;		i2___fltol
  7753 ;;		i2___wmul
  7754 ;;		i2___xxtofl
  7755 ;; This function is called by:
  7756 ;;		_Hi_ISR
  7757 ;; This function uses a non-reentrant model
  7758 ;;
  7759                           psect	text32,class=CODE,space=0,reloc=2,group=0
  7760                           	file	"Problem3.c"
  7761                           	line	201
  7762                           global __ptext32
  7763                           __ptext32:
  7764  001182                     psect	text32
  7765                           	file	"Problem3.c"
  7766                           	line	201
  7767                           	global	__size_ofi2_PrintVoltage
  7768                           	__size_ofi2_PrintVoltage	equ	__end_ofi2_PrintVoltage-i2_PrintVoltage
  7769  0000                     	
  7770                           i2_PrintVoltage:
  7771  001182                     ;incstack = 0
  7772                           	opt	stack 22
  7773                           	line	203
  7774                           	
  7775                           i2l2902:
  7776  001182                     ;Problem3.c: 201: void PrintVoltage(int digital);Problem3.c: 202: {;Problem3.c: 203:    
                                  float voltage = 0.0;
  7777                           	movlw	low(normalize32(0x0))
  7778  001182  0E00               	movwf	((c:i2PrintVoltage@voltage)),c
  7779  001184  6E34               	movlw	high(normalize32(0x0))
  7780  001186  0E00               	movwf	((c:i2PrintVoltage@voltage+1)),c
  7781  001188  6E35               	movlw	low highword(normalize32(0x0))
  7782  00118A  0E00               	movwf	((c:i2PrintVoltage@voltage+2)),c
  7783  00118C  6E36               	movlw	high highword(normalize32(0x0))
  7784  00118E  0E00               	movwf	((c:i2PrintVoltage@voltage+3)),c
  7785  001190  6E37               	line	204
  7786                           	
  7787                           i2l2904:
  7788  001192                     ;Problem3.c: 204:     voltage = digital* ((float)5/1023);
  7789                           	movff	(c:i2PrintVoltage@digital),(c:i2___xxtofl@val)
  7790  001192  C032  F001         	movff	(c:i2PrintVoltage@digital+1),(c:i2___xxtofl@val+1)
  7791  001196  C033  F002         	movlw	0
  7792  00119A  0E00               	btfsc	((c:i2___xxtofl@val+1)),c,7
  7793  00119C  BE02               	movlw	-1
  7794  00119E  0EFF               	movwf	((c:i2___xxtofl@val+2)),c
  7795  0011A0  6E03               	movwf	((c:i2___xxtofl@val+3)),c
  7796  0011A2  6E04               	movlw	(01h)&0ffh
  7797  0011A4  0E01               	
  7798                           	call	i2___xxtofl
  7799  0011A6  ECDD  F00A         	movff	0+?i2___xxtofl,(c:i2___flmul@b)
  7800  0011AA  C001  F00F         	movff	1+?i2___xxtofl,(c:i2___flmul@b+1)
  7801  0011AE  C002  F010         	movff	2+?i2___xxtofl,(c:i2___flmul@b+2)
  7802  0011B2  C003  F011         	movff	3+?i2___xxtofl,(c:i2___flmul@b+3)
  7803  0011B6  C004  F012         	
  7804                           	movlw	low(normalize32(0x3ba0280a))
  7805  0011BA  0E0A               	movwf	((c:i2___flmul@a)),c
  7806  0011BC  6E13               	movlw	high(normalize32(0x3ba0280a))
  7807  0011BE  0E28               	movwf	((c:i2___flmul@a+1)),c
  7808  0011C0  6E14               	movlw	low highword(normalize32(0x3ba0280a))
  7809  0011C2  0EA0               	movwf	((c:i2___flmul@a+2)),c
  7810  0011C4  6E15               	movlw	high highword(normalize32(0x3ba0280a))
  7811  0011C6  0E3B               	movwf	((c:i2___flmul@a+3)),c
  7812  0011C8  6E16               	call	i2___flmul	;wreg free
  7813  0011CA  EC4A  F005         	movff	0+?i2___flmul,(c:i2PrintVoltage@voltage)
  7814  0011CE  C00F  F034         	movff	1+?i2___flmul,(c:i2PrintVoltage@voltage+1)
  7815  0011D2  C010  F035         	movff	2+?i2___flmul,(c:i2PrintVoltage@voltage+2)
  7816  0011D6  C011  F036         	movff	3+?i2___flmul,(c:i2PrintVoltage@voltage+3)
  7817  0011DA  C012  F037         	
  7818                           	line	208
  7819                           	
  7820                           i2l2906:
  7821  0011DE                     ;Problem3.c: 208:         int temp = voltage*100;
  7822                           	movlw	low(normalize32(0x42c80000))
  7823  0011DE  0E00               	movwf	((c:i2___flmul@a)),c
  7824  0011E0  6E13               	movlw	high(normalize32(0x42c80000))
  7825  0011E2  0E00               	movwf	((c:i2___flmul@a+1)),c
  7826  0011E4  6E14               	movlw	low highword(normalize32(0x42c80000))
  7827  0011E6  0EC8               	movwf	((c:i2___flmul@a+2)),c
  7828  0011E8  6E15               	movlw	high highword(normalize32(0x42c80000))
  7829  0011EA  0E42               	movwf	((c:i2___flmul@a+3)),c
  7830  0011EC  6E16               	movff	(c:i2PrintVoltage@voltage),(c:i2___flmul@b)
  7831  0011EE  C034  F00F         	movff	(c:i2PrintVoltage@voltage+1),(c:i2___flmul@b+1)
  7832  0011F2  C035  F010         	movff	(c:i2PrintVoltage@voltage+2),(c:i2___flmul@b+2)
  7833  0011F6  C036  F011         	movff	(c:i2PrintVoltage@voltage+3),(c:i2___flmul@b+3)
  7834  0011FA  C037  F012         	call	i2___flmul	;wreg free
  7835  0011FE  EC4A  F005         	movff	0+?i2___flmul,(c:i2___fltol@f1)
  7836  001202  C00F  F028         	movff	1+?i2___flmul,(c:i2___fltol@f1+1)
  7837  001206  C010  F029         	movff	2+?i2___flmul,(c:i2___fltol@f1+2)
  7838  00120A  C011  F02A         	movff	3+?i2___flmul,(c:i2___fltol@f1+3)
  7839  00120E  C012  F02B         	
  7840                           	call	i2___fltol	;wreg free
  7841  001212  EC75  F00C         	movff	0+?i2___fltol,(c:i2PrintVoltage@temp)
  7842  001216  C028  F039         	movff	1+?i2___fltol,(c:i2PrintVoltage@temp+1)
  7843  00121A  C029  F03A         	line	210
  7844                           ;Problem3.c: 209:         char c;;Problem3.c: 210:         c = '\n';
  7845                           	movlw	low(0Ah)
  7846  00121E  0E0A               	movwf	((c:i2PrintVoltage@c)),c
  7847  001220  6E38               	line	211
  7848                           	
  7849                           i2l2908:
  7850  001222                     ;Problem3.c: 211:         UART_Write(c);
  7851                           	movf	((c:i2PrintVoltage@c)),c,w
  7852  001222  5038               	
  7853                           	call	i2_UART_Write
  7854  001224  EC55  F013         	line	212
  7855                           	
  7856                           i2l2910:
  7857  001228                     ;Problem3.c: 212:         if(temp/100 > 0)
  7858                           	movff	(c:i2PrintVoltage@temp),(c:i2___awdiv@dividend)
  7859  001228  C039  F001         	movff	(c:i2PrintVoltage@temp+1),(c:i2___awdiv@dividend+1)
  7860  00122C  C03A  F002         	movlw	high(064h)
  7861  001230  0E00               	movwf	((c:i2___awdiv@divisor+1)),c
  7862  001232  6E04               	movlw	low(064h)
  7863  001234  0E64               	movwf	((c:i2___awdiv@divisor)),c
  7864  001236  6E03               	call	i2___awdiv	;wreg free
  7865  001238  EC17  F00F         	btfsc	(1+?i2___awdiv),c,7
  7866  00123C  BE02               	goto	i2u263_41
  7867  00123E  EF29  F009         	movf	(1+?i2___awdiv),c,w
  7868  001242  5002               	bnz	i2u263_40
  7869  001244  E108               	decf	(0+?i2___awdiv),c,w
  7870  001246  0401               	btfss	status,0
  7871  001248  A0D8               	goto	i2u263_41
  7872  00124A  EF29  F009         	goto	i2u263_40
  7873  00124E  EF2B  F009         
  7874                           i2u263_41:
  7875  001252                     	goto	i2l2926
  7876  001252  EF8C  F009         i2u263_40:
  7877  001256                     	line	214
  7878                           	
  7879                           i2l2912:
  7880  001256                     ;Problem3.c: 213:         {;Problem3.c: 214:             c = temp/100 + '0';
  7881                           	movff	(c:i2PrintVoltage@temp),(c:i2___awdiv@dividend)
  7882  001256  C039  F001         	movff	(c:i2PrintVoltage@temp+1),(c:i2___awdiv@dividend+1)
  7883  00125A  C03A  F002         	movlw	high(064h)
  7884  00125E  0E00               	movwf	((c:i2___awdiv@divisor+1)),c
  7885  001260  6E04               	movlw	low(064h)
  7886  001262  0E64               	movwf	((c:i2___awdiv@divisor)),c
  7887  001264  6E03               	call	i2___awdiv	;wreg free
  7888  001266  EC17  F00F         	movf	(0+?i2___awdiv),c,w
  7889  00126A  5001               	addlw	low(030h)
  7890  00126C  0F30               	movwf	((c:i2PrintVoltage@c)),c
  7891  00126E  6E38               	line	215
  7892                           	
  7893                           i2l2914:
  7894  001270                     ;Problem3.c: 215:             temp = temp - temp/100*100;
  7895                           	movlw	high(064h)
  7896  001270  0E00               	movwf	((c:i2___awdiv@divisor+1)),c
  7897  001272  6E04               	movlw	low(064h)
  7898  001274  0E64               	movwf	((c:i2___awdiv@divisor)),c
  7899  001276  6E03               	movff	(c:i2PrintVoltage@temp),(c:i2___awdiv@dividend)
  7900  001278  C039  F001         	movff	(c:i2PrintVoltage@temp+1),(c:i2___awdiv@dividend+1)
  7901  00127C  C03A  F002         	call	i2___awdiv	;wreg free
  7902  001280  EC17  F00F         	movff	0+?i2___awdiv,(c:i2___wmul@multiplier)
  7903  001284  C001  F009         	movff	1+?i2___awdiv,(c:i2___wmul@multiplier+1)
  7904  001288  C002  F00A         	movlw	high(064h)
  7905  00128C  0E00               	movwf	((c:i2___wmul@multiplicand+1)),c
  7906  00128E  6E0C               	movlw	low(064h)
  7907  001290  0E64               	movwf	((c:i2___wmul@multiplicand)),c
  7908  001292  6E0B               	call	i2___wmul	;wreg free
  7909  001294  ECFC  F012         	comf	(0+?i2___wmul),c
  7910  001298  1E09               	comf	(1+?i2___wmul),c
  7911  00129A  1E0A               	infsnz	(0+?i2___wmul),c
  7912  00129C  4A09               	incf	(1+?i2___wmul),c
  7913  00129E  2A0A               	movf	((c:i2PrintVoltage@temp)),c,w
  7914  0012A0  5039               	addwf	(0+?i2___wmul),c,w
  7915  0012A2  2409               	movwf	((c:i2PrintVoltage@temp)),c
  7916  0012A4  6E39               	movf	((c:i2PrintVoltage@temp+1)),c,w
  7917  0012A6  503A               	addwfc	(1+?i2___wmul),c,w
  7918  0012A8  200A               	movwf	1+((c:i2PrintVoltage@temp)),c
  7919  0012AA  6E3A               	line	216
  7920                           	
  7921                           i2l2916:
  7922  0012AC                     ;Problem3.c: 216:             UART_Write(c);
  7923                           	movf	((c:i2PrintVoltage@c)),c,w
  7924  0012AC  5038               	
  7925                           	call	i2_UART_Write
  7926  0012AE  EC55  F013         	line	218
  7927                           	
  7928                           i2l2918:
  7929  0012B2                     ;Problem3.c: 218:             UART_Write('.');
  7930                           	movlw	(02Eh)&0ffh
  7931  0012B2  0E2E               	
  7932                           	call	i2_UART_Write
  7933  0012B4  EC55  F013         	line	220
  7934                           	
  7935                           i2l2920:
  7936  0012B8                     ;Problem3.c: 220:             c = temp/10 + '0';
  7937                           	movff	(c:i2PrintVoltage@temp),(c:i2___awdiv@dividend)
  7938  0012B8  C039  F001         	movff	(c:i2PrintVoltage@temp+1),(c:i2___awdiv@dividend+1)
  7939  0012BC  C03A  F002         	movlw	high(0Ah)
  7940  0012C0  0E00               	movwf	((c:i2___awdiv@divisor+1)),c
  7941  0012C2  6E04               	movlw	low(0Ah)
  7942  0012C4  0E0A               	movwf	((c:i2___awdiv@divisor)),c
  7943  0012C6  6E03               	call	i2___awdiv	;wreg free
  7944  0012C8  EC17  F00F         	movf	(0+?i2___awdiv),c,w
  7945  0012CC  5001               	addlw	low(030h)
  7946  0012CE  0F30               	movwf	((c:i2PrintVoltage@c)),c
  7947  0012D0  6E38               	line	221
  7948                           	
  7949                           i2l2922:
  7950  0012D2                     ;Problem3.c: 221:             temp = temp - temp/10*10;
  7951                           	movlw	high(0Ah)
  7952  0012D2  0E00               	movwf	((c:i2___awdiv@divisor+1)),c
  7953  0012D4  6E04               	movlw	low(0Ah)
  7954  0012D6  0E0A               	movwf	((c:i2___awdiv@divisor)),c
  7955  0012D8  6E03               	movff	(c:i2PrintVoltage@temp),(c:i2___awdiv@dividend)
  7956  0012DA  C039  F001         	movff	(c:i2PrintVoltage@temp+1),(c:i2___awdiv@dividend+1)
  7957  0012DE  C03A  F002         	call	i2___awdiv	;wreg free
  7958  0012E2  EC17  F00F         	movff	0+?i2___awdiv,(c:i2___wmul@multiplier)
  7959  0012E6  C001  F009         	movff	1+?i2___awdiv,(c:i2___wmul@multiplier+1)
  7960  0012EA  C002  F00A         	movlw	high(0Ah)
  7961  0012EE  0E00               	movwf	((c:i2___wmul@multiplicand+1)),c
  7962  0012F0  6E0C               	movlw	low(0Ah)
  7963  0012F2  0E0A               	movwf	((c:i2___wmul@multiplicand)),c
  7964  0012F4  6E0B               	call	i2___wmul	;wreg free
  7965  0012F6  ECFC  F012         	comf	(0+?i2___wmul),c
  7966  0012FA  1E09               	comf	(1+?i2___wmul),c
  7967  0012FC  1E0A               	infsnz	(0+?i2___wmul),c
  7968  0012FE  4A09               	incf	(1+?i2___wmul),c
  7969  001300  2A0A               	movf	((c:i2PrintVoltage@temp)),c,w
  7970  001302  5039               	addwf	(0+?i2___wmul),c,w
  7971  001304  2409               	movwf	((c:i2PrintVoltage@temp)),c
  7972  001306  6E39               	movf	((c:i2PrintVoltage@temp+1)),c,w
  7973  001308  503A               	addwfc	(1+?i2___wmul),c,w
  7974  00130A  200A               	movwf	1+((c:i2PrintVoltage@temp)),c
  7975  00130C  6E3A               	line	222
  7976                           	
  7977                           i2l2924:
  7978  00130E                     ;Problem3.c: 222:             UART_Write(c);
  7979                           	movf	((c:i2PrintVoltage@c)),c,w
  7980  00130E  5038               	
  7981                           	call	i2_UART_Write
  7982  001310  EC55  F013         	line	223
  7983                           ;Problem3.c: 223:         }
  7984                           	goto	i2l2938
  7985  001314  EFE6  F009         	line	224
  7986                           ;Problem3.c: 224:         else if(temp/10 > 0)
  7987                           	
  7988                           i2l163:
  7989  001318                     	
  7990                           i2l2926:
  7991  001318                     	movff	(c:i2PrintVoltage@temp),(c:i2___awdiv@dividend)
  7992  001318  C039  F001         	movff	(c:i2PrintVoltage@temp+1),(c:i2___awdiv@dividend+1)
  7993  00131C  C03A  F002         	movlw	high(0Ah)
  7994  001320  0E00               	movwf	((c:i2___awdiv@divisor+1)),c
  7995  001322  6E04               	movlw	low(0Ah)
  7996  001324  0E0A               	movwf	((c:i2___awdiv@divisor)),c
  7997  001326  6E03               	call	i2___awdiv	;wreg free
  7998  001328  EC17  F00F         	btfsc	(1+?i2___awdiv),c,7
  7999  00132C  BE02               	goto	i2u264_41
  8000  00132E  EFA1  F009         	movf	(1+?i2___awdiv),c,w
  8001  001332  5002               	bnz	i2u264_40
  8002  001334  E108               	decf	(0+?i2___awdiv),c,w
  8003  001336  0401               	btfss	status,0
  8004  001338  A0D8               	goto	i2u264_41
  8005  00133A  EFA1  F009         	goto	i2u264_40
  8006  00133E  EFA3  F009         
  8007                           i2u264_41:
  8008  001342                     	goto	i2l2936
  8009  001342  EFD9  F009         i2u264_40:
  8010  001346                     	line	226
  8011                           	
  8012                           i2l2928:
  8013  001346                     ;Problem3.c: 225:         {;Problem3.c: 226:             UART_Write('0');
  8014                           	movlw	(030h)&0ffh
  8015  001346  0E30               	
  8016                           	call	i2_UART_Write
  8017  001348  EC55  F013         	line	227
  8018                           ;Problem3.c: 227:             UART_Write('.');
  8019                           	movlw	(02Eh)&0ffh
  8020  00134C  0E2E               	
  8021                           	call	i2_UART_Write
  8022  00134E  EC55  F013         	line	229
  8023                           	
  8024                           i2l2930:
  8025  001352                     ;Problem3.c: 229:             c = temp/10 + '0';
  8026                           	movff	(c:i2PrintVoltage@temp),(c:i2___awdiv@dividend)
  8027  001352  C039  F001         	movff	(c:i2PrintVoltage@temp+1),(c:i2___awdiv@dividend+1)
  8028  001356  C03A  F002         	movlw	high(0Ah)
  8029  00135A  0E00               	movwf	((c:i2___awdiv@divisor+1)),c
  8030  00135C  6E04               	movlw	low(0Ah)
  8031  00135E  0E0A               	movwf	((c:i2___awdiv@divisor)),c
  8032  001360  6E03               	call	i2___awdiv	;wreg free
  8033  001362  EC17  F00F         	movf	(0+?i2___awdiv),c,w
  8034  001366  5001               	addlw	low(030h)
  8035  001368  0F30               	movwf	((c:i2PrintVoltage@c)),c
  8036  00136A  6E38               	line	230
  8037                           	
  8038                           i2l2932:
  8039  00136C                     ;Problem3.c: 230:             temp = temp - temp/10*10;
  8040                           	movlw	high(0Ah)
  8041  00136C  0E00               	movwf	((c:i2___awdiv@divisor+1)),c
  8042  00136E  6E04               	movlw	low(0Ah)
  8043  001370  0E0A               	movwf	((c:i2___awdiv@divisor)),c
  8044  001372  6E03               	movff	(c:i2PrintVoltage@temp),(c:i2___awdiv@dividend)
  8045  001374  C039  F001         	movff	(c:i2PrintVoltage@temp+1),(c:i2___awdiv@dividend+1)
  8046  001378  C03A  F002         	call	i2___awdiv	;wreg free
  8047  00137C  EC17  F00F         	movff	0+?i2___awdiv,(c:i2___wmul@multiplier)
  8048  001380  C001  F009         	movff	1+?i2___awdiv,(c:i2___wmul@multiplier+1)
  8049  001384  C002  F00A         	movlw	high(0Ah)
  8050  001388  0E00               	movwf	((c:i2___wmul@multiplicand+1)),c
  8051  00138A  6E0C               	movlw	low(0Ah)
  8052  00138C  0E0A               	movwf	((c:i2___wmul@multiplicand)),c
  8053  00138E  6E0B               	call	i2___wmul	;wreg free
  8054  001390  ECFC  F012         	comf	(0+?i2___wmul),c
  8055  001394  1E09               	comf	(1+?i2___wmul),c
  8056  001396  1E0A               	infsnz	(0+?i2___wmul),c
  8057  001398  4A09               	incf	(1+?i2___wmul),c
  8058  00139A  2A0A               	movf	((c:i2PrintVoltage@temp)),c,w
  8059  00139C  5039               	addwf	(0+?i2___wmul),c,w
  8060  00139E  2409               	movwf	((c:i2PrintVoltage@temp)),c
  8061  0013A0  6E39               	movf	((c:i2PrintVoltage@temp+1)),c,w
  8062  0013A2  503A               	addwfc	(1+?i2___wmul),c,w
  8063  0013A4  200A               	movwf	1+((c:i2PrintVoltage@temp)),c
  8064  0013A6  6E3A               	line	231
  8065                           	
  8066                           i2l2934:
  8067  0013A8                     ;Problem3.c: 231:             UART_Write(c);
  8068                           	movf	((c:i2PrintVoltage@c)),c,w
  8069  0013A8  5038               	
  8070                           	call	i2_UART_Write
  8071  0013AA  EC55  F013         	line	232
  8072                           ;Problem3.c: 232:         }
  8073                           	goto	i2l2938
  8074  0013AE  EFE6  F009         	line	233
  8075                           ;Problem3.c: 233:         else
  8076                           	
  8077                           i2l165:
  8078  0013B2                     	line	235
  8079                           	
  8080                           i2l2936:
  8081  0013B2                     ;Problem3.c: 234:         {;Problem3.c: 235:             UART_Write('0');
  8082                           	movlw	(030h)&0ffh
  8083  0013B2  0E30               	
  8084                           	call	i2_UART_Write
  8085  0013B4  EC55  F013         	line	236
  8086                           ;Problem3.c: 236:             UART_Write('.');
  8087                           	movlw	(02Eh)&0ffh
  8088  0013B8  0E2E               	
  8089                           	call	i2_UART_Write
  8090  0013BA  EC55  F013         	line	237
  8091                           ;Problem3.c: 237:             UART_Write('0');
  8092                           	movlw	(030h)&0ffh
  8093  0013BE  0E30               	
  8094                           	call	i2_UART_Write
  8095  0013C0  EC55  F013         	goto	i2l2938
  8096  0013C4  EFE6  F009         	line	238
  8097                           ;Problem3.c: 238:         }
  8098                           	
  8099                           i2l166:
  8100  0013C8                     	goto	i2l2938
  8101  0013C8  EFE6  F009         	
  8102                           i2l164:
  8103  0013CC                     	line	240
  8104                           	
  8105                           i2l2938:
  8106  0013CC                     ;Problem3.c: 240:         c = temp + '0';
  8107                           	movf	((c:i2PrintVoltage@temp)),c,w
  8108  0013CC  5039               	addlw	low(030h)
  8109  0013CE  0F30               	movwf	((c:i2PrintVoltage@c)),c
  8110  0013D0  6E38               	line	241
  8111                           	
  8112                           i2l2940:
  8113  0013D2                     ;Problem3.c: 241:         UART_Write(c);
  8114                           	movf	((c:i2PrintVoltage@c)),c,w
  8115  0013D2  5038               	
  8116                           	call	i2_UART_Write
  8117  0013D4  EC55  F013         	line	245
  8118                           	
  8119                           i2l167:
  8120  0013D8                     	return	;funcret
  8121  0013D8  0012               	opt stack 0
  8122                           GLOBAL	__end_ofi2_PrintVoltage
  8123                           	__end_ofi2_PrintVoltage:
  8124  0013DA                     	signat	i2_PrintVoltage,89
  8125                           	global	i2___xxtofl
  8126                           
  8127 ;; *************** function i2___xxtofl *****************
  8128 ;; Defined at:
  8129 ;;		line 10 in file "C:\Program Files (x86)\Microchip\xc8\v2.00\pic\sources\c99\common\xxtofl.c"
  8130 ;; Parameters:    Size  Location     Type
  8131 ;;  sign            1    wreg     unsigned char 
  8132 ;;  val             4    0[COMRAM] long 
  8133 ;; Auto vars:     Size  Location     Type
  8134 ;;  sign            1    8[COMRAM] unsigned char 
  8135 ;;  __xxtofl        4   10[COMRAM] unsigned long 
  8136 ;;  __xxtofl        1    9[COMRAM] unsigned char 
  8137 ;; Return value:  Size  Location     Type
  8138 ;;                  4    0[COMRAM] unsigned char 
  8139 ;; Registers used:
  8140 ;;		wreg, status,2, status,0
  8141 ;; Tracked objects:
  8142 ;;		On entry : 0/0
  8143 ;;		On exit  : 0/0
  8144 ;;		Unchanged: 0/0
  8145 ;; Data sizes:     COMRAM   BANK0   BANK1   BANK2   BANK3   BANK4   BANK5
  8146 ;;      Params:         4       0       0       0       0       0       0
  8147 ;;      Locals:         6       0       0       0       0       0       0
  8148 ;;      Temps:          4       0       0       0       0       0       0
  8149 ;;      Totals:        14       0       0       0       0       0       0
  8150 ;;Total ram usage:       14 bytes
  8151 ;; Hardware stack levels used:    1
  8152 ;; This function calls:
  8153 ;;		Nothing
  8154 ;; This function is called by:
  8155 ;;		i2_PrintVoltage
  8156 ;; This function uses a non-reentrant model
  8157 ;;
  8158                           psect	text33,class=CODE,space=0,reloc=2,group=0
  8159                           	file	"C:\Program Files (x86)\Microchip\xc8\v2.00\pic\sources\c99\common\xxtofl.c"
  8160                           	line	10
  8161                           global __ptext33
  8162                           __ptext33:
  8163  0015BA                     psect	text33
  8164                           	file	"C:\Program Files (x86)\Microchip\xc8\v2.00\pic\sources\c99\common\xxtofl.c"
  8165                           	line	10
  8166                           	global	__size_ofi2___xxtofl
  8167                           	__size_ofi2___xxtofl	equ	__end_ofi2___xxtofl-i2___xxtofl
  8168  0000                     	
  8169                           i2___xxtofl:
  8170  0015BA                     ;incstack = 0
  8171                           	opt	stack 22
  8172                           ;i2___xxtofl@sign stored from wreg
  8173                           	movwf	((c:i2___xxtofl@sign)),c
  8174  0015BA  6E09               	line	15
  8175                           	
  8176                           i2l2704:
  8177  0015BC                     	movf	((c:i2___xxtofl@sign)),c,w
  8178  0015BC  5009               	btfsc	status,2
  8179  0015BE  B4D8               	goto	i2u241_41
  8180  0015C0  EFE4  F00A         	goto	i2u241_40
  8181  0015C4  EFE6  F00A         i2u241_41:
  8182  0015C8                     	goto	i2l895
  8183  0015C8  EF08  F00B         i2u241_40:
  8184  0015CC                     	
  8185                           i2l2706:
  8186  0015CC                     	btfsc	((c:i2___xxtofl@val+3)),c,7
  8187  0015CC  BE04               	goto	i2u242_40
  8188  0015CE  EFED  F00A         	goto	i2u242_41
  8189  0015D2  EFEB  F00A         
  8190                           i2u242_41:
  8191  0015D6                     	goto	i2l895
  8192  0015D6  EF08  F00B         i2u242_40:
  8193  0015DA                     	line	16
  8194                           	
  8195                           i2l2708:
  8196  0015DA                     	movff	(c:i2___xxtofl@val),??i2___xxtofl+0+0
  8197  0015DA  C001  F005         	movff	(c:i2___xxtofl@val+1),??i2___xxtofl+0+0+1
  8198  0015DE  C002  F006         	movff	(c:i2___xxtofl@val+2),??i2___xxtofl+0+0+2
  8199  0015E2  C003  F007         	movff	(c:i2___xxtofl@val+3),??i2___xxtofl+0+0+3
  8200  0015E6  C004  F008         	comf	(??i2___xxtofl+0+0),c
  8201  0015EA  1E05               	comf	(??i2___xxtofl+0+1),c
  8202  0015EC  1E06               	comf	(??i2___xxtofl+0+2),c
  8203  0015EE  1E07               	comf	(??i2___xxtofl+0+3),c
  8204  0015F0  1E08               	incf	(??i2___xxtofl+0+0),c
  8205  0015F2  2A05               	movlw	0
  8206  0015F4  0E00               	addwfc	(??i2___xxtofl+0+1),c
  8207  0015F6  2206               	addwfc	(??i2___xxtofl+0+2),c
  8208  0015F8  2207               	addwfc	(??i2___xxtofl+0+3),c
  8209  0015FA  2208               	movff	??i2___xxtofl+0+0,(c:i2___xxtofl@arg)
  8210  0015FC  C005  F00B         	movff	??i2___xxtofl+0+1,(c:i2___xxtofl@arg+1)
  8211  001600  C006  F00C         	movff	??i2___xxtofl+0+2,(c:i2___xxtofl@arg+2)
  8212  001604  C007  F00D         	movff	??i2___xxtofl+0+3,(c:i2___xxtofl@arg+3)
  8213  001608  C008  F00E         	line	17
  8214                           	goto	i2l2710
  8215  00160C  EF12  F00B         	line	18
  8216                           	
  8217                           i2l895:
  8218  001610                     	line	19
  8219                           	movff	(c:i2___xxtofl@val),(c:i2___xxtofl@arg)
  8220  001610  C001  F00B         	movff	(c:i2___xxtofl@val+1),(c:i2___xxtofl@arg+1)
  8221  001614  C002  F00C         	movff	(c:i2___xxtofl@val+2),(c:i2___xxtofl@arg+2)
  8222  001618  C003  F00D         	movff	(c:i2___xxtofl@val+3),(c:i2___xxtofl@arg+3)
  8223  00161C  C004  F00E         	goto	i2l2710
  8224  001620  EF12  F00B         	line	20
  8225                           	
  8226                           i2l896:
  8227  001624                     	line	21
  8228                           	
  8229                           i2l2710:
  8230  001624                     	movf	((c:i2___xxtofl@val)),c,w
  8231  001624  5001               iorwf	((c:i2___xxtofl@val+1)),c,w
  8232  001626  1002               iorwf	((c:i2___xxtofl@val+2)),c,w
  8233  001628  1003               iorwf	((c:i2___xxtofl@val+3)),c,w
  8234  00162A  1004               	btfss	status,2
  8235  00162C  A4D8               	goto	i2u243_41
  8236  00162E  EF1B  F00B         	goto	i2u243_40
  8237  001632  EF1D  F00B         
  8238                           i2u243_41:
  8239  001636                     	goto	i2l2716
  8240  001636  EF29  F00B         i2u243_40:
  8241  00163A                     	line	22
  8242                           	
  8243                           i2l2712:
  8244  00163A                     	movlw	low(normalize32(0x0))
  8245  00163A  0E00               	movwf	((c:?i2___xxtofl)),c
  8246  00163C  6E01               	movlw	high(normalize32(0x0))
  8247  00163E  0E00               	movwf	((c:?i2___xxtofl+1)),c
  8248  001640  6E02               	movlw	low highword(normalize32(0x0))
  8249  001642  0E00               	movwf	((c:?i2___xxtofl+2)),c
  8250  001644  6E03               	movlw	high highword(normalize32(0x0))
  8251  001646  0E00               	movwf	((c:?i2___xxtofl+3)),c
  8252  001648  6E04               	goto	i2l898
  8253  00164A  EFCA  F00B         	
  8254                           i2l2714:
  8255  00164E                     	goto	i2l898
  8256  00164E  EFCA  F00B         	
  8257                           i2l897:
  8258  001652                     	line	23
  8259                           	
  8260                           i2l2716:
  8261  001652                     	movlw	low(096h)
  8262  001652  0E96               	movwf	((c:i2___xxtofl@exp)),c
  8263  001654  6E0A               	line	24
  8264                           	goto	i2l2720
  8265  001656  EF35  F00B         	
  8266                           i2l900:
  8267  00165A                     	line	25
  8268                           	
  8269                           i2l2718:
  8270  00165A                     	incf	((c:i2___xxtofl@exp)),c
  8271  00165A  2A0A               	line	26
  8272                           	bcf	status,0
  8273  00165C  90D8               	rrcf	((c:i2___xxtofl@arg+3)),c
  8274  00165E  320E               	rrcf	((c:i2___xxtofl@arg+2)),c
  8275  001660  320D               	rrcf	((c:i2___xxtofl@arg+1)),c
  8276  001662  320C               	rrcf	((c:i2___xxtofl@arg)),c
  8277  001664  320B               	goto	i2l2720
  8278  001666  EF35  F00B         	line	27
  8279                           	
  8280                           i2l899:
  8281  00166A                     	line	24
  8282                           	
  8283                           i2l2720:
  8284  00166A                     	movlw	0
  8285  00166A  0E00               	andwf	((c:i2___xxtofl@arg)),c,w
  8286  00166C  140B               	movwf	(??i2___xxtofl+0+0)&0ffh,c
  8287  00166E  6E05               	movlw	0
  8288  001670  0E00               	andwf	((c:i2___xxtofl@arg+1)),c,w
  8289  001672  140C               	movwf	1+(??i2___xxtofl+0+0)&0ffh,c
  8290  001674  6E06               	
  8291                           	movlw	0
  8292  001676  0E00               	andwf	((c:i2___xxtofl@arg+2)),c,w
  8293  001678  140D               	movwf	2+(??i2___xxtofl+0+0)&0ffh,c
  8294  00167A  6E07               	
  8295                           	movlw	0FEh
  8296  00167C  0EFE               	andwf	((c:i2___xxtofl@arg+3)),c,w
  8297  00167E  140E               	movwf	3+(??i2___xxtofl+0+0)&0ffh,c
  8298  001680  6E08               	movf	(??i2___xxtofl+0+0),c,w
  8299  001682  5005               iorwf	(??i2___xxtofl+0+1),c,w
  8300  001684  1006               iorwf	(??i2___xxtofl+0+2),c,w
  8301  001686  1007               iorwf	(??i2___xxtofl+0+3),c,w
  8302  001688  1008               	btfss	status,2
  8303  00168A  A4D8               	goto	i2u244_41
  8304  00168C  EF4A  F00B         	goto	i2u244_40
  8305  001690  EF4C  F00B         
  8306                           i2u244_41:
  8307  001694                     	goto	i2l2718
  8308  001694  EF2D  F00B         i2u244_40:
  8309  001698                     	goto	i2l902
  8310  001698  EF5C  F00B         	
  8311                           i2l901:
  8312  00169C                     	line	28
  8313                           	goto	i2l902
  8314  00169C  EF5C  F00B         	
  8315                           i2l903:
  8316  0016A0                     	line	29
  8317                           	
  8318                           i2l2722:
  8319  0016A0                     	incf	((c:i2___xxtofl@exp)),c
  8320  0016A0  2A0A               	line	30
  8321                           	
  8322                           i2l2724:
  8323  0016A2                     	movlw	low(01h)
  8324  0016A2  0E01               	addwf	((c:i2___xxtofl@arg)),c
  8325  0016A4  260B               	movlw	0
  8326  0016A6  0E00               	addwfc	((c:i2___xxtofl@arg+1)),c
  8327  0016A8  220C               	addwfc	((c:i2___xxtofl@arg+2)),c
  8328  0016AA  220D               	addwfc	((c:i2___xxtofl@arg+3)),c
  8329  0016AC  220E               	line	31
  8330                           	
  8331                           i2l2726:
  8332  0016AE                     	bcf	status,0
  8333  0016AE  90D8               	rrcf	((c:i2___xxtofl@arg+3)),c
  8334  0016B0  320E               	rrcf	((c:i2___xxtofl@arg+2)),c
  8335  0016B2  320D               	rrcf	((c:i2___xxtofl@arg+1)),c
  8336  0016B4  320C               	rrcf	((c:i2___xxtofl@arg)),c
  8337  0016B6  320B               	line	32
  8338                           	
  8339                           i2l902:
  8340  0016B8                     	line	28
  8341                           	movlw	0
  8342  0016B8  0E00               	andwf	((c:i2___xxtofl@arg)),c,w
  8343  0016BA  140B               	movwf	(??i2___xxtofl+0+0)&0ffh,c
  8344  0016BC  6E05               	movlw	0
  8345  0016BE  0E00               	andwf	((c:i2___xxtofl@arg+1)),c,w
  8346  0016C0  140C               	movwf	1+(??i2___xxtofl+0+0)&0ffh,c
  8347  0016C2  6E06               	
  8348                           	movlw	0
  8349  0016C4  0E00               	andwf	((c:i2___xxtofl@arg+2)),c,w
  8350  0016C6  140D               	movwf	2+(??i2___xxtofl+0+0)&0ffh,c
  8351  0016C8  6E07               	
  8352                           	movlw	0FFh
  8353  0016CA  0EFF               	andwf	((c:i2___xxtofl@arg+3)),c,w
  8354  0016CC  140E               	movwf	3+(??i2___xxtofl+0+0)&0ffh,c
  8355  0016CE  6E08               	movf	(??i2___xxtofl+0+0),c,w
  8356  0016D0  5005               iorwf	(??i2___xxtofl+0+1),c,w
  8357  0016D2  1006               iorwf	(??i2___xxtofl+0+2),c,w
  8358  0016D4  1007               iorwf	(??i2___xxtofl+0+3),c,w
  8359  0016D6  1008               	btfss	status,2
  8360  0016D8  A4D8               	goto	i2u245_41
  8361  0016DA  EF71  F00B         	goto	i2u245_40
  8362  0016DE  EF73  F00B         
  8363                           i2u245_41:
  8364  0016E2                     	goto	i2l2722
  8365  0016E2  EF50  F00B         i2u245_40:
  8366  0016E6                     	goto	i2l2730
  8367  0016E6  EF7F  F00B         	
  8368                           i2l904:
  8369  0016EA                     	line	33
  8370                           	goto	i2l2730
  8371  0016EA  EF7F  F00B         	
  8372                           i2l906:
  8373  0016EE                     	line	34
  8374                           	
  8375                           i2l2728:
  8376  0016EE                     	decf	((c:i2___xxtofl@exp)),c
  8377  0016EE  060A               	line	35
  8378                           	bcf	status,0
  8379  0016F0  90D8               	rlcf	((c:i2___xxtofl@arg)),c
  8380  0016F2  360B               	rlcf	((c:i2___xxtofl@arg+1)),c
  8381  0016F4  360C               	rlcf	((c:i2___xxtofl@arg+2)),c
  8382  0016F6  360D               	rlcf	((c:i2___xxtofl@arg+3)),c
  8383  0016F8  360E               	goto	i2l2730
  8384  0016FA  EF7F  F00B         	line	36
  8385                           	
  8386                           i2l905:
  8387  0016FE                     	line	33
  8388                           	
  8389                           i2l2730:
  8390  0016FE                     	
  8391                           	btfsc	((c:i2___xxtofl@arg+2)),c,(23)&7
  8392  0016FE  BE0D               	goto	i2u246_41
  8393  001700  EF84  F00B         	goto	i2u246_40
  8394  001704  EF86  F00B         i2u246_41:
  8395  001708                     	goto	i2l909
  8396  001708  EF90  F00B         i2u246_40:
  8397  00170C                     	
  8398                           i2l2732:
  8399  00170C                     		movlw	02h-0
  8400  00170C  0E02               	cpfslt	((c:i2___xxtofl@exp)),c
  8401  00170E  600A               	goto	i2u247_41
  8402  001710  EF8C  F00B         	goto	i2u247_40
  8403  001714  EF8E  F00B         
  8404                           i2u247_41:
  8405  001718                     	goto	i2l2728
  8406  001718  EF77  F00B         i2u247_40:
  8407  00171C                     	goto	i2l909
  8408  00171C  EF90  F00B         	
  8409                           i2l908:
  8410  001720                     	
  8411                           i2l909:
  8412  001720                     	line	37
  8413                           	
  8414                           	btfsc	((c:i2___xxtofl@exp)),c,(0)&7
  8415  001720  B00A               	goto	i2u248_41
  8416  001722  EF95  F00B         	goto	i2u248_40
  8417  001726  EF97  F00B         i2u248_41:
  8418  00172A                     	goto	i2l2736
  8419  00172A  EF9A  F00B         i2u248_40:
  8420  00172E                     	line	38
  8421                           	
  8422                           i2l2734:
  8423  00172E                     	bcf	(0+(23/8)+(c:i2___xxtofl@arg)),c,(23)&7
  8424  00172E  9E0D               	goto	i2l2736
  8425  001730  EF9A  F00B         	
  8426                           i2l910:
  8427  001734                     	line	39
  8428                           	
  8429                           i2l2736:
  8430  001734                     	bcf status,0
  8431  001734  90D8               	rrcf	((c:i2___xxtofl@exp)),c
  8432  001736  320A               
  8433                           	line	40
  8434                           	
  8435                           i2l2738:
  8436  001738                     	movff	(c:i2___xxtofl@exp),??i2___xxtofl+0+0
  8437  001738  C00A  F005         	clrf	(??i2___xxtofl+0+0+1)&0ffh,c
  8438  00173C  6A06               	clrf	(??i2___xxtofl+0+0+2)&0ffh,c
  8439  00173E  6A07               	clrf	(??i2___xxtofl+0+0+3)&0ffh,c
  8440  001740  6A08               	movff	??i2___xxtofl+0+0,??i2___xxtofl+0+3
  8441  001742  C005  F008         	clrf	(??i2___xxtofl+0+2),c
  8442  001746  6A07               	clrf	(??i2___xxtofl+0+1),c
  8443  001748  6A06               	clrf	(??i2___xxtofl+0+0),c
  8444  00174A  6A05               	movf	(??i2___xxtofl+0+0),c,w
  8445  00174C  5005               	iorwf	((c:i2___xxtofl@arg)),c
  8446  00174E  120B               	movf	(??i2___xxtofl+0+1),c,w
  8447  001750  5006               	iorwf	((c:i2___xxtofl@arg+1)),c
  8448  001752  120C               	movf	(??i2___xxtofl+0+2),c,w
  8449  001754  5007               	iorwf	((c:i2___xxtofl@arg+2)),c
  8450  001756  120D               	movf	(??i2___xxtofl+0+3),c,w
  8451  001758  5008               	iorwf	((c:i2___xxtofl@arg+3)),c
  8452  00175A  120E               
  8453                           	line	41
  8454                           	
  8455                           i2l2740:
  8456  00175C                     	movf	((c:i2___xxtofl@sign)),c,w
  8457  00175C  5009               	btfsc	status,2
  8458  00175E  B4D8               	goto	i2u249_41
  8459  001760  EFB4  F00B         	goto	i2u249_40
  8460  001764  EFB6  F00B         i2u249_41:
  8461  001768                     	goto	i2l2746
  8462  001768  EFC0  F00B         i2u249_40:
  8463  00176C                     	
  8464                           i2l2742:
  8465  00176C                     	btfsc	((c:i2___xxtofl@val+3)),c,7
  8466  00176C  BE04               	goto	i2u250_40
  8467  00176E  EFBD  F00B         	goto	i2u250_41
  8468  001772  EFBB  F00B         
  8469                           i2u250_41:
  8470  001776                     	goto	i2l2746
  8471  001776  EFC0  F00B         i2u250_40:
  8472  00177A                     	line	42
  8473                           	
  8474                           i2l2744:
  8475  00177A                     	bsf	(0+(31/8)+(c:i2___xxtofl@arg)),c,(31)&7
  8476  00177A  8E0E               	goto	i2l2746
  8477  00177C  EFC0  F00B         	
  8478                           i2l911:
  8479  001780                     	line	43
  8480                           	
  8481                           i2l2746:
  8482  001780                     	movff	(c:i2___xxtofl@arg),(c:?i2___xxtofl)
  8483  001780  C00B  F001         	movff	(c:i2___xxtofl@arg+1),(c:?i2___xxtofl+1)
  8484  001784  C00C  F002         	movff	(c:i2___xxtofl@arg+2),(c:?i2___xxtofl+2)
  8485  001788  C00D  F003         	movff	(c:i2___xxtofl@arg+3),(c:?i2___xxtofl+3)
  8486  00178C  C00E  F004         	goto	i2l898
  8487  001790  EFCA  F00B         	
  8488                           i2l2748:
  8489  001794                     	line	44
  8490                           	
  8491                           i2l898:
  8492  001794                     	return	;funcret
  8493  001794  0012               	opt stack 0
  8494                           GLOBAL	__end_ofi2___xxtofl
  8495                           	__end_ofi2___xxtofl:
  8496  001796                     	signat	i2___xxtofl,92
  8497                           	global	i2___wmul
  8498                           
  8499 ;; *************** function i2___wmul *****************
  8500 ;; Defined at:
  8501 ;;		line 15 in file "C:\Program Files (x86)\Microchip\xc8\v2.00\pic\sources\c99\common\Umul16.c"
  8502 ;; Parameters:    Size  Location     Type
  8503 ;;  multiplier      2    8[COMRAM] unsigned int 
  8504 ;;  multiplicand    2   10[COMRAM] unsigned int 
  8505 ;; Auto vars:     Size  Location     Type
  8506 ;;  __wmul          2   12[COMRAM] unsigned int 
  8507 ;; Return value:  Size  Location     Type
  8508 ;;                  2    8[COMRAM] unsigned int 
  8509 ;; Registers used:
  8510 ;;		wreg, status,2, status,0, prodl, prodh
  8511 ;; Tracked objects:
  8512 ;;		On entry : 0/0
  8513 ;;		On exit  : 0/0
  8514 ;;		Unchanged: 0/0
  8515 ;; Data sizes:     COMRAM   BANK0   BANK1   BANK2   BANK3   BANK4   BANK5
  8516 ;;      Params:         4       0       0       0       0       0       0
  8517 ;;      Locals:         2       0       0       0       0       0       0
  8518 ;;      Temps:          0       0       0       0       0       0       0
  8519 ;;      Totals:         6       0       0       0       0       0       0
  8520 ;;Total ram usage:        6 bytes
  8521 ;; Hardware stack levels used:    1
  8522 ;; This function calls:
  8523 ;;		Nothing
  8524 ;; This function is called by:
  8525 ;;		i2_PrintVoltage
  8526 ;; This function uses a non-reentrant model
  8527 ;;
  8528                           psect	text34,class=CODE,space=0,reloc=2,group=0
  8529                           	file	"C:\Program Files (x86)\Microchip\xc8\v2.00\pic\sources\c99\common\Umul16.c"
  8530                           	line	15
  8531                           global __ptext34
  8532                           __ptext34:
  8533  0025F8                     psect	text34
  8534                           	file	"C:\Program Files (x86)\Microchip\xc8\v2.00\pic\sources\c99\common\Umul16.c"
  8535                           	line	15
  8536                           	global	__size_ofi2___wmul
  8537                           	__size_ofi2___wmul	equ	__end_ofi2___wmul-i2___wmul
  8538  0000                     	
  8539                           i2___wmul:
  8540  0025F8                     ;incstack = 0
  8541                           	opt	stack 22
  8542                           	line	37
  8543                           	
  8544                           i2l2480:
  8545  0025F8                     	movf	((c:i2___wmul@multiplier)),c,w
  8546  0025F8  5009               	mulwf	((c:i2___wmul@multiplicand)),c
  8547  0025FA  020B               	movff	prodl,(c:i2___wmul@product)
  8548  0025FC  CFF3 F00D          	movff	prodh,(c:i2___wmul@product+1)
  8549  002600  CFF4 F00E          	line	38
  8550                           	movf	((c:i2___wmul@multiplier)),c,w
  8551  002604  5009               	mulwf	(0+((c:i2___wmul@multiplicand)+01h)),c
  8552  002606  020C               	movf	(prodl),c,w
  8553  002608  50F3               	addwf	((c:i2___wmul@product+1)),c
  8554  00260A  260E               
  8555                           	line	39
  8556                           	movf	(0+((c:i2___wmul@multiplier)+01h)),c,w
  8557  00260C  500A               	mulwf	((c:i2___wmul@multiplicand)),c
  8558  00260E  020B               	movf	(prodl),c,w
  8559  002610  50F3               	addwf	((c:i2___wmul@product+1)),c
  8560  002612  260E               
  8561                           	line	52
  8562                           	
  8563                           i2l2482:
  8564  002614                     	movff	(c:i2___wmul@product),(c:?i2___wmul)
  8565  002614  C00D  F009         	movff	(c:i2___wmul@product+1),(c:?i2___wmul+1)
  8566  002618  C00E  F00A         	goto	i2l240
  8567  00261C  EF10  F013         	
  8568                           i2l2484:
  8569  002620                     	line	53
  8570                           	
  8571                           i2l240:
  8572  002620                     	return	;funcret
  8573  002620  0012               	opt stack 0
  8574                           GLOBAL	__end_ofi2___wmul
  8575                           	__end_ofi2___wmul:
  8576  002622                     	signat	i2___wmul,90
  8577                           	global	i2___fltol
  8578                           
  8579 ;; *************** function i2___fltol *****************
  8580 ;; Defined at:
  8581 ;;		line 43 in file "C:\Program Files (x86)\Microchip\xc8\v2.00\pic\sources\c99\common\fltol.c"
  8582 ;; Parameters:    Size  Location     Type
  8583 ;;  f1              4   39[COMRAM] unsigned int 
  8584 ;; Auto vars:     Size  Location     Type
  8585 ;;  __fltol         1   48[COMRAM] unsigned char 
  8586 ;;  __fltol         1   47[COMRAM] unsigned char 
  8587 ;; Return value:  Size  Location     Type
  8588 ;;                  4   39[COMRAM] long 
  8589 ;; Registers used:
  8590 ;;		wreg, status,2, status,0
  8591 ;; Tracked objects:
  8592 ;;		On entry : 0/0
  8593 ;;		On exit  : 0/0
  8594 ;;		Unchanged: 0/0
  8595 ;; Data sizes:     COMRAM   BANK0   BANK1   BANK2   BANK3   BANK4   BANK5
  8596 ;;      Params:         4       0       0       0       0       0       0
  8597 ;;      Locals:         2       0       0       0       0       0       0
  8598 ;;      Temps:          4       0       0       0       0       0       0
  8599 ;;      Totals:        10       0       0       0       0       0       0
  8600 ;;Total ram usage:       10 bytes
  8601 ;; Hardware stack levels used:    1
  8602 ;; This function calls:
  8603 ;;		Nothing
  8604 ;; This function is called by:
  8605 ;;		i2_PrintVoltage
  8606 ;; This function uses a non-reentrant model
  8607 ;;
  8608                           psect	text35,class=CODE,space=0,reloc=2,group=0
  8609                           	file	"C:\Program Files (x86)\Microchip\xc8\v2.00\pic\sources\c99\common\fltol.c"
  8610                           	line	43
  8611                           global __ptext35
  8612                           __ptext35:
  8613  0018EA                     psect	text35
  8614                           	file	"C:\Program Files (x86)\Microchip\xc8\v2.00\pic\sources\c99\common\fltol.c"
  8615                           	line	43
  8616                           	global	__size_ofi2___fltol
  8617                           	__size_ofi2___fltol	equ	__end_ofi2___fltol-i2___fltol
  8618  0000                     	
  8619                           i2___fltol:
  8620  0018EA                     ;incstack = 0
  8621                           	opt	stack 22
  8622                           	line	47
  8623                           	
  8624                           i2l2530:
  8625  0018EA                     	rlcf	((c:i2___fltol@f1+2)),c,w
  8626  0018EA  342A               	rlcf	((c:i2___fltol@f1+3)),c,w
  8627  0018EC  342B               	movwf	((c:i2___fltol@exp1)),c
  8628  0018EE  6E31               	movf	((c:i2___fltol@exp1)),c,w
  8629  0018F0  5031               	btfss	status,2
  8630  0018F2  A4D8               	goto	i2u215_41
  8631  0018F4  EF7E  F00C         	goto	i2u215_40
  8632  0018F8  EF80  F00C         i2u215_41:
  8633  0018FC                     	goto	i2l2536
  8634  0018FC  EF8C  F00C         i2u215_40:
  8635  001900                     	line	48
  8636                           	
  8637                           i2l2532:
  8638  001900                     	movlw	low(0)
  8639  001900  0E00               	movwf	((c:?i2___fltol)),c
  8640  001902  6E28               	movlw	high(0)
  8641  001904  0E00               	movwf	((c:?i2___fltol+1)),c
  8642  001906  6E29               	movlw	low highword(0)
  8643  001908  0E00               	movwf	((c:?i2___fltol+2)),c
  8644  00190A  6E2A               	movlw	high highword(0)
  8645  00190C  0E00               	movwf	((c:?i2___fltol+3)),c
  8646  00190E  6E2B               	goto	i2l537
  8647  001910  EF1D  F00D         	
  8648                           i2l2534:
  8649  001914                     	goto	i2l537
  8650  001914  EF1D  F00D         	
  8651                           i2l536:
  8652  001918                     	line	49
  8653                           	
  8654                           i2l2536:
  8655  001918                     	movff	(c:i2___fltol@f1),??i2___fltol+0+0
  8656  001918  C028  F02C         	movff	(c:i2___fltol@f1+1),??i2___fltol+0+0+1
  8657  00191C  C029  F02D         	movff	(c:i2___fltol@f1+2),??i2___fltol+0+0+2
  8658  001920  C02A  F02E         	movff	(c:i2___fltol@f1+3),??i2___fltol+0+0+3
  8659  001924  C02B  F02F         	movlw	01Fh+1
  8660  001928  0E20               	goto	i2u216_40
  8661  00192A  EF9C  F00C         i2u216_45:
  8662  00192E                     	bcf	status,0
  8663  00192E  90D8               	rrcf	(??i2___fltol+0+3),c
  8664  001930  322F               	rrcf	(??i2___fltol+0+2),c
  8665  001932  322E               	rrcf	(??i2___fltol+0+1),c
  8666  001934  322D               	rrcf	(??i2___fltol+0+0),c
  8667  001936  322C               i2u216_40:
  8668  001938                     	decfsz	wreg
  8669  001938  2EE8               	goto	i2u216_45
  8670  00193A  EF97  F00C         	movf	(??i2___fltol+0+0),c,w
  8671  00193E  502C               	movwf	((c:i2___fltol@sign1)),c
  8672  001940  6E30               	line	50
  8673                           	
  8674                           i2l2538:
  8675  001942                     	bsf	(0+(23/8)+(c:i2___fltol@f1)),c,(23)&7
  8676  001942  8E2A               	line	51
  8677                           	
  8678                           i2l2540:
  8679  001944                     	movlw	0FFh
  8680  001944  0EFF               	andwf	((c:i2___fltol@f1)),c
  8681  001946  1628               	movlw	0FFh
  8682  001948  0EFF               	andwf	((c:i2___fltol@f1+1)),c
  8683  00194A  1629               	movlw	0FFh
  8684  00194C  0EFF               	andwf	((c:i2___fltol@f1+2)),c
  8685  00194E  162A               	movlw	0
  8686  001950  0E00               	andwf	((c:i2___fltol@f1+3)),c
  8687  001952  162B               	line	52
  8688                           	
  8689                           i2l2542:
  8690  001954                     	movlw	(096h)&0ffh
  8691  001954  0E96               	subwf	((c:i2___fltol@exp1)),c
  8692  001956  5E31               	line	53
  8693                           	
  8694                           i2l2544:
  8695  001958                     	btfsc	((c:i2___fltol@exp1)),c,7
  8696  001958  BE31               	goto	i2u217_40
  8697  00195A  EFB3  F00C         	goto	i2u217_41
  8698  00195E  EFB1  F00C         
  8699                           i2u217_41:
  8700  001962                     	goto	i2l2556
  8701  001962  EFD7  F00C         i2u217_40:
  8702  001966                     	line	54
  8703                           	
  8704                           i2l2546:
  8705  001966                     		movf	((c:i2___fltol@exp1)),c,w
  8706  001966  5031               	xorlw	80h
  8707  001968  0A80               	addlw	-(80h^-23)
  8708  00196A  0F97               	btfsc	status,0
  8709  00196C  B0D8               	goto	i2u218_41
  8710  00196E  EFBB  F00C         	goto	i2u218_40
  8711  001972  EFBD  F00C         
  8712                           i2u218_41:
  8713  001976                     	goto	i2l2552
  8714  001976  EFCB  F00C         i2u218_40:
  8715  00197A                     	line	55
  8716                           	
  8717                           i2l2548:
  8718  00197A                     	movlw	low(0)
  8719  00197A  0E00               	movwf	((c:?i2___fltol)),c
  8720  00197C  6E28               	movlw	high(0)
  8721  00197E  0E00               	movwf	((c:?i2___fltol+1)),c
  8722  001980  6E29               	movlw	low highword(0)
  8723  001982  0E00               	movwf	((c:?i2___fltol+2)),c
  8724  001984  6E2A               	movlw	high highword(0)
  8725  001986  0E00               	movwf	((c:?i2___fltol+3)),c
  8726  001988  6E2B               	goto	i2l537
  8727  00198A  EF1D  F00D         	
  8728                           i2l2550:
  8729  00198E                     	goto	i2l537
  8730  00198E  EF1D  F00D         	
  8731                           i2l539:
  8732  001992                     	goto	i2l2552
  8733  001992  EFCB  F00C         	line	56
  8734                           	
  8735                           i2l540:
  8736  001996                     	line	57
  8737                           	
  8738                           i2l2552:
  8739  001996                     	bcf	status,0
  8740  001996  90D8               	rrcf	((c:i2___fltol@f1+3)),c
  8741  001998  322B               	rrcf	((c:i2___fltol@f1+2)),c
  8742  00199A  322A               	rrcf	((c:i2___fltol@f1+1)),c
  8743  00199C  3229               	rrcf	((c:i2___fltol@f1)),c
  8744  00199E  3228               	
  8745                           i2l2554:
  8746  0019A0                     	incfsz	((c:i2___fltol@exp1)),c
  8747  0019A0  3E31               	
  8748                           	goto	i2l2552
  8749  0019A2  EFCB  F00C         	goto	i2l2566
  8750  0019A6  EF01  F00D         	
  8751                           i2l541:
  8752  0019AA                     	line	59
  8753                           	goto	i2l2566
  8754  0019AA  EF01  F00D         	
  8755                           i2l538:
  8756  0019AE                     	line	60
  8757                           	
  8758                           i2l2556:
  8759  0019AE                     		movlw	020h-1
  8760  0019AE  0E1F               	cpfsgt	((c:i2___fltol@exp1)),c
  8761  0019B0  6431               	goto	i2u219_41
  8762  0019B2  EFDD  F00C         	goto	i2u219_40
  8763  0019B6  EFDF  F00C         
  8764                           i2u219_41:
  8765  0019BA                     	goto	i2l2564
  8766  0019BA  EFF5  F00C         i2u219_40:
  8767  0019BE                     	line	61
  8768                           	
  8769                           i2l2558:
  8770  0019BE                     	movlw	low(0)
  8771  0019BE  0E00               	movwf	((c:?i2___fltol)),c
  8772  0019C0  6E28               	movlw	high(0)
  8773  0019C2  0E00               	movwf	((c:?i2___fltol+1)),c
  8774  0019C4  6E29               	movlw	low highword(0)
  8775  0019C6  0E00               	movwf	((c:?i2___fltol+2)),c
  8776  0019C8  6E2A               	movlw	high highword(0)
  8777  0019CA  0E00               	movwf	((c:?i2___fltol+3)),c
  8778  0019CC  6E2B               	goto	i2l537
  8779  0019CE  EF1D  F00D         	
  8780                           i2l2560:
  8781  0019D2                     	goto	i2l537
  8782  0019D2  EF1D  F00D         	
  8783                           i2l543:
  8784  0019D6                     	line	62
  8785                           	goto	i2l2564
  8786  0019D6  EFF5  F00C         	
  8787                           i2l545:
  8788  0019DA                     	line	63
  8789                           	
  8790                           i2l2562:
  8791  0019DA                     	bcf	status,0
  8792  0019DA  90D8               	rlcf	((c:i2___fltol@f1)),c
  8793  0019DC  3628               	rlcf	((c:i2___fltol@f1+1)),c
  8794  0019DE  3629               	rlcf	((c:i2___fltol@f1+2)),c
  8795  0019E0  362A               	rlcf	((c:i2___fltol@f1+3)),c
  8796  0019E2  362B               	line	64
  8797                           	decf	((c:i2___fltol@exp1)),c
  8798  0019E4  0631               	goto	i2l2564
  8799  0019E6  EFF5  F00C         	line	65
  8800                           	
  8801                           i2l544:
  8802  0019EA                     	line	62
  8803                           	
  8804                           i2l2564:
  8805  0019EA                     	movf	((c:i2___fltol@exp1)),c,w
  8806  0019EA  5031               	btfss	status,2
  8807  0019EC  A4D8               	goto	i2u220_41
  8808  0019EE  EFFB  F00C         	goto	i2u220_40
  8809  0019F2  EFFD  F00C         i2u220_41:
  8810  0019F6                     	goto	i2l2562
  8811  0019F6  EFED  F00C         i2u220_40:
  8812  0019FA                     	goto	i2l2566
  8813  0019FA  EF01  F00D         	
  8814                           i2l546:
  8815  0019FE                     	goto	i2l2566
  8816  0019FE  EF01  F00D         	line	66
  8817                           	
  8818                           i2l542:
  8819  001A02                     	line	67
  8820                           	
  8821                           i2l2566:
  8822  001A02                     	movf	((c:i2___fltol@sign1)),c,w
  8823  001A02  5030               	btfsc	status,2
  8824  001A04  B4D8               	goto	i2u221_41
  8825  001A06  EF07  F00D         	goto	i2u221_40
  8826  001A0A  EF09  F00D         i2u221_41:
  8827  001A0E                     	goto	i2l2570
  8828  001A0E  EF13  F00D         i2u221_40:
  8829  001A12                     	line	68
  8830                           	
  8831                           i2l2568:
  8832  001A12                     	comf	((c:i2___fltol@f1+3)),c
  8833  001A12  1E2B               	comf	((c:i2___fltol@f1+2)),c
  8834  001A14  1E2A               	comf	((c:i2___fltol@f1+1)),c
  8835  001A16  1E29               	negf	((c:i2___fltol@f1)),c
  8836  001A18  6C28               	movlw	0
  8837  001A1A  0E00               	addwfc	((c:i2___fltol@f1+1)),c
  8838  001A1C  2229               	addwfc	((c:i2___fltol@f1+2)),c
  8839  001A1E  222A               	addwfc	((c:i2___fltol@f1+3)),c
  8840  001A20  222B               	goto	i2l2570
  8841  001A22  EF13  F00D         	
  8842                           i2l547:
  8843  001A26                     	line	69
  8844                           	
  8845                           i2l2570:
  8846  001A26                     	movff	(c:i2___fltol@f1),(c:?i2___fltol)
  8847  001A26  C028  F028         	movff	(c:i2___fltol@f1+1),(c:?i2___fltol+1)
  8848  001A2A  C029  F029         	movff	(c:i2___fltol@f1+2),(c:?i2___fltol+2)
  8849  001A2E  C02A  F02A         	movff	(c:i2___fltol@f1+3),(c:?i2___fltol+3)
  8850  001A32  C02B  F02B         	goto	i2l537
  8851  001A36  EF1D  F00D         	
  8852                           i2l2572:
  8853  001A3A                     	line	70
  8854                           	
  8855                           i2l537:
  8856  001A3A                     	return	;funcret
  8857  001A3A  0012               	opt stack 0
  8858                           GLOBAL	__end_ofi2___fltol
  8859                           	__end_ofi2___fltol:
  8860  001A3C                     	signat	i2___fltol,92
  8861                           	global	i2___flmul
  8862                           
  8863 ;; *************** function i2___flmul *****************
  8864 ;; Defined at:
  8865 ;;		line 8 in file "C:\Program Files (x86)\Microchip\xc8\v2.00\pic\sources\c99\common\sprcmul.c"
  8866 ;; Parameters:    Size  Location     Type
  8867 ;;  b               4   14[COMRAM] long 
  8868 ;;  a               4   18[COMRAM] long 
  8869 ;; Auto vars:     Size  Location     Type
  8870 ;;  __flmul         4   33[COMRAM] struct .
  8871 ;;  __flmul         4   27[COMRAM] unsigned long 
  8872 ;;  __flmul         2   37[COMRAM] struct .
  8873 ;;  __flmul         1   32[COMRAM] unsigned char 
  8874 ;;  __flmul         1   31[COMRAM] unsigned char 
  8875 ;;  __flmul         1   26[COMRAM] unsigned char 
  8876 ;; Return value:  Size  Location     Type
  8877 ;;                  4   14[COMRAM] unsigned char 
  8878 ;; Registers used:
  8879 ;;		wreg, status,2, status,0, prodl, prodh
  8880 ;; Tracked objects:
  8881 ;;		On entry : 0/0
  8882 ;;		On exit  : 0/0
  8883 ;;		Unchanged: 0/0
  8884 ;; Data sizes:     COMRAM   BANK0   BANK1   BANK2   BANK3   BANK4   BANK5
  8885 ;;      Params:         8       0       0       0       0       0       0
  8886 ;;      Locals:        13       0       0       0       0       0       0
  8887 ;;      Temps:          4       0       0       0       0       0       0
  8888 ;;      Totals:        25       0       0       0       0       0       0
  8889 ;;Total ram usage:       25 bytes
  8890 ;; Hardware stack levels used:    1
  8891 ;; This function calls:
  8892 ;;		Nothing
  8893 ;; This function is called by:
  8894 ;;		i2_PrintVoltage
  8895 ;; This function uses a non-reentrant model
  8896 ;;
  8897                           psect	text36,class=CODE,space=0,reloc=2,group=0
  8898                           	file	"C:\Program Files (x86)\Microchip\xc8\v2.00\pic\sources\c99\common\sprcmul.c"
  8899                           	line	8
  8900                           global __ptext36
  8901                           __ptext36:
  8902  000A94                     psect	text36
  8903                           	file	"C:\Program Files (x86)\Microchip\xc8\v2.00\pic\sources\c99\common\sprcmul.c"
  8904                           	line	8
  8905                           	global	__size_ofi2___flmul
  8906                           	__size_ofi2___flmul	equ	__end_ofi2___flmul-i2___flmul
  8907  0000                     	
  8908                           i2___flmul:
  8909  000A94                     ;incstack = 0
  8910                           	opt	stack 22
  8911                           	line	17
  8912                           	
  8913                           i2l2574:
  8914  000A94                     	movf	(0+((c:i2___flmul@b)+03h)),c,w
  8915  000A94  5012               	andlw	low(080h)
  8916  000A96  0B80               	movwf	((c:i2___flmul@sign)),c
  8917  000A98  6E1B               	line	18
  8918                           	movf	(0+((c:i2___flmul@b)+03h)),c,w
  8919  000A9A  5012               	addwf	(0+((c:i2___flmul@b)+03h)),c,w
  8920  000A9C  2412               	movwf	((c:i2___flmul@bexp)),c
  8921  000A9E  6E21               	line	19
  8922                           	
  8923                           i2l2576:
  8924  000AA0                     	
  8925                           	btfss	(0+((c:i2___flmul@b)+02h)),c,(7)&7
  8926  000AA0  AE11               	goto	i2u222_41
  8927  000AA2  EF55  F005         	goto	i2u222_40
  8928  000AA6  EF57  F005         i2u222_41:
  8929  000AAA                     	goto	i2l2580
  8930  000AAA  EF5A  F005         i2u222_40:
  8931  000AAE                     	line	20
  8932                           	
  8933                           i2l2578:
  8934  000AAE                     	bsf	(0+(0/8)+(c:i2___flmul@bexp)),c,(0)&7
  8935  000AAE  8021               	goto	i2l2580
  8936  000AB0  EF5A  F005         	line	21
  8937                           	
  8938                           i2l847:
  8939  000AB4                     	line	24
  8940                           	
  8941                           i2l2580:
  8942  000AB4                     	movf	((c:i2___flmul@bexp)),c,w
  8943  000AB4  5021               	btfsc	status,2
  8944  000AB6  B4D8               	goto	i2u223_41
  8945  000AB8  EF60  F005         	goto	i2u223_40
  8946  000ABC  EF62  F005         i2u223_41:
  8947  000AC0                     	goto	i2l2588
  8948  000AC0  EF77  F005         i2u223_40:
  8949  000AC4                     	line	26
  8950                           	
  8951                           i2l2582:
  8952  000AC4                     		incf	((c:i2___flmul@bexp)),c,w
  8953  000AC4  2821               	btfss	status,2
  8954  000AC6  A4D8               	goto	i2u224_41
  8955  000AC8  EF68  F005         	goto	i2u224_40
  8956  000ACC  EF6A  F005         
  8957                           i2u224_41:
  8958  000AD0                     	goto	i2l2586
  8959  000AD0  EF74  F005         i2u224_40:
  8960  000AD4                     	line	28
  8961                           	
  8962                           i2l2584:
  8963  000AD4                     	movlw	low(normalize32(0x0))
  8964  000AD4  0E00               	movwf	((c:i2___flmul@b)),c
  8965  000AD6  6E0F               	movlw	high(normalize32(0x0))
  8966  000AD8  0E00               	movwf	((c:i2___flmul@b+1)),c
  8967  000ADA  6E10               	movlw	low highword(normalize32(0x0))
  8968  000ADC  0E00               	movwf	((c:i2___flmul@b+2)),c
  8969  000ADE  6E11               	movlw	high highword(normalize32(0x0))
  8970  000AE0  0E00               	movwf	((c:i2___flmul@b+3)),c
  8971  000AE2  6E12               	goto	i2l2586
  8972  000AE4  EF74  F005         	line	29
  8973                           	
  8974                           i2l849:
  8975  000AE8                     	line	31
  8976                           	
  8977                           i2l2586:
  8978  000AE8                     	bsf	(0+(23/8)+(c:i2___flmul@b)),c,(23)&7
  8979  000AE8  8E11               	line	33
  8980                           	goto	i2l2590
  8981  000AEA  EF81  F005         	line	34
  8982                           	
  8983                           i2l848:
  8984  000AEE                     	line	36
  8985                           	
  8986                           i2l2588:
  8987  000AEE                     	movlw	low(normalize32(0x0))
  8988  000AEE  0E00               	movwf	((c:i2___flmul@b)),c
  8989  000AF0  6E0F               	movlw	high(normalize32(0x0))
  8990  000AF2  0E00               	movwf	((c:i2___flmul@b+1)),c
  8991  000AF4  6E10               	movlw	low highword(normalize32(0x0))
  8992  000AF6  0E00               	movwf	((c:i2___flmul@b+2)),c
  8993  000AF8  6E11               	movlw	high highword(normalize32(0x0))
  8994  000AFA  0E00               	movwf	((c:i2___flmul@b+3)),c
  8995  000AFC  6E12               	goto	i2l2590
  8996  000AFE  EF81  F005         	line	37
  8997                           	
  8998                           i2l850:
  8999  000B02                     	line	39
  9000                           	
  9001                           i2l2590:
  9002  000B02                     	movf	(0+((c:i2___flmul@a)+03h)),c,w
  9003  000B02  5016               	andlw	low(080h)
  9004  000B04  0B80               	xorwf	((c:i2___flmul@sign)),c
  9005  000B06  1A1B               	line	40
  9006                           	
  9007                           i2l2592:
  9008  000B08                     	movf	(0+((c:i2___flmul@a)+03h)),c,w
  9009  000B08  5016               	addwf	(0+((c:i2___flmul@a)+03h)),c,w
  9010  000B0A  2416               	movwf	((c:i2___flmul@aexp)),c
  9011  000B0C  6E20               	line	41
  9012                           	
  9013                           i2l2594:
  9014  000B0E                     	
  9015                           	btfss	(0+((c:i2___flmul@a)+02h)),c,(7)&7
  9016  000B0E  AE15               	goto	i2u225_41
  9017  000B10  EF8C  F005         	goto	i2u225_40
  9018  000B14  EF8E  F005         i2u225_41:
  9019  000B18                     	goto	i2l2598
  9020  000B18  EF91  F005         i2u225_40:
  9021  000B1C                     	line	42
  9022                           	
  9023                           i2l2596:
  9024  000B1C                     	bsf	(0+(0/8)+(c:i2___flmul@aexp)),c,(0)&7
  9025  000B1C  8020               	goto	i2l2598
  9026  000B1E  EF91  F005         	line	43
  9027                           	
  9028                           i2l851:
  9029  000B22                     	line	45
  9030                           	
  9031                           i2l2598:
  9032  000B22                     	movf	((c:i2___flmul@aexp)),c,w
  9033  000B22  5020               	btfsc	status,2
  9034  000B24  B4D8               	goto	i2u226_41
  9035  000B26  EF97  F005         	goto	i2u226_40
  9036  000B2A  EF99  F005         i2u226_41:
  9037  000B2E                     	goto	i2l2606
  9038  000B2E  EFAE  F005         i2u226_40:
  9039  000B32                     	line	48
  9040                           	
  9041                           i2l2600:
  9042  000B32                     		incf	((c:i2___flmul@aexp)),c,w
  9043  000B32  2820               	btfss	status,2
  9044  000B34  A4D8               	goto	i2u227_41
  9045  000B36  EF9F  F005         	goto	i2u227_40
  9046  000B3A  EFA1  F005         
  9047                           i2u227_41:
  9048  000B3E                     	goto	i2l2604
  9049  000B3E  EFAB  F005         i2u227_40:
  9050  000B42                     	line	50
  9051                           	
  9052                           i2l2602:
  9053  000B42                     	movlw	low(normalize32(0x0))
  9054  000B42  0E00               	movwf	((c:i2___flmul@a)),c
  9055  000B44  6E13               	movlw	high(normalize32(0x0))
  9056  000B46  0E00               	movwf	((c:i2___flmul@a+1)),c
  9057  000B48  6E14               	movlw	low highword(normalize32(0x0))
  9058  000B4A  0E00               	movwf	((c:i2___flmul@a+2)),c
  9059  000B4C  6E15               	movlw	high highword(normalize32(0x0))
  9060  000B4E  0E00               	movwf	((c:i2___flmul@a+3)),c
  9061  000B50  6E16               	goto	i2l2604
  9062  000B52  EFAB  F005         	line	51
  9063                           	
  9064                           i2l853:
  9065  000B56                     	line	53
  9066                           	
  9067                           i2l2604:
  9068  000B56                     	bsf	(0+(23/8)+(c:i2___flmul@a)),c,(23)&7
  9069  000B56  8E15               	line	54
  9070                           	goto	i2l854
  9071  000B58  EFB6  F005         	line	55
  9072                           	
  9073                           i2l852:
  9074  000B5C                     	line	57
  9075                           	
  9076                           i2l2606:
  9077  000B5C                     	movlw	low(normalize32(0x0))
  9078  000B5C  0E00               	movwf	((c:i2___flmul@a)),c
  9079  000B5E  6E13               	movlw	high(normalize32(0x0))
  9080  000B60  0E00               	movwf	((c:i2___flmul@a+1)),c
  9081  000B62  6E14               	movlw	low highword(normalize32(0x0))
  9082  000B64  0E00               	movwf	((c:i2___flmul@a+2)),c
  9083  000B66  6E15               	movlw	high highword(normalize32(0x0))
  9084  000B68  0E00               	movwf	((c:i2___flmul@a+3)),c
  9085  000B6A  6E16               	line	58
  9086                           	
  9087                           i2l854:
  9088  000B6C                     	line	65
  9089                           	movf	((c:i2___flmul@aexp)),c,w
  9090  000B6C  5020               	btfsc	status,2
  9091  000B6E  B4D8               	goto	i2u228_41
  9092  000B70  EFBC  F005         	goto	i2u228_40
  9093  000B74  EFBE  F005         i2u228_41:
  9094  000B78                     	goto	i2l2610
  9095  000B78  EFC8  F005         i2u228_40:
  9096  000B7C                     	
  9097                           i2l2608:
  9098  000B7C                     	movf	((c:i2___flmul@bexp)),c,w
  9099  000B7C  5021               	btfss	status,2
  9100  000B7E  A4D8               	goto	i2u229_41
  9101  000B80  EFC4  F005         	goto	i2u229_40
  9102  000B84  EFC6  F005         i2u229_41:
  9103  000B88                     	goto	i2l2614
  9104  000B88  EFD4  F005         i2u229_40:
  9105  000B8C                     	goto	i2l2610
  9106  000B8C  EFC8  F005         	
  9107                           i2l857:
  9108  000B90                     	line	66
  9109                           	
  9110                           i2l2610:
  9111  000B90                     	movlw	low(normalize32(0x0))
  9112  000B90  0E00               	movwf	((c:?i2___flmul)),c
  9113  000B92  6E0F               	movlw	high(normalize32(0x0))
  9114  000B94  0E00               	movwf	((c:?i2___flmul+1)),c
  9115  000B96  6E10               	movlw	low highword(normalize32(0x0))
  9116  000B98  0E00               	movwf	((c:?i2___flmul+2)),c
  9117  000B9A  6E11               	movlw	high highword(normalize32(0x0))
  9118  000B9C  0E00               	movwf	((c:?i2___flmul+3)),c
  9119  000B9E  6E12               	goto	i2l858
  9120  000BA0  EF80  F007         	
  9121                           i2l2612:
  9122  000BA4                     	goto	i2l858
  9123  000BA4  EF80  F007         	line	67
  9124                           	
  9125                           i2l855:
  9126  000BA8                     	line	95
  9127                           	
  9128                           i2l2614:
  9129  000BA8                     	movf	(0+((c:i2___flmul@a)+02h)),c,w
  9130  000BA8  5015               	mulwf	((c:i2___flmul@b)),c
  9131  000BAA  020F               	movff	prodl,(c:i2___flmul@temp)
  9132  000BAC  CFF3 F026          	movff	prodh,(c:i2___flmul@temp+1)
  9133  000BB0  CFF4 F027          	line	96
  9134                           	
  9135                           i2l2616:
  9136  000BB4                     	movf	((c:i2___flmul@temp)),c,w
  9137  000BB4  5026               	movwf	((c:i2___flmul@grs)),c
  9138  000BB6  6E1C               	clrf	((c:i2___flmul@grs+1)),c
  9139  000BB8  6A1D               	clrf	((c:i2___flmul@grs+2)),c
  9140  000BBA  6A1E               	clrf	((c:i2___flmul@grs+3)),c
  9141  000BBC  6A1F               
  9142                           	line	97
  9143                           	
  9144                           i2l2618:
  9145  000BBE                     	movf	(0+((c:i2___flmul@temp)+01h)),c,w
  9146  000BBE  5027               	movwf	((c:i2___flmul@prod)),c
  9147  000BC0  6E22               	clrf	((c:i2___flmul@prod+1)),c
  9148  000BC2  6A23               	clrf	((c:i2___flmul@prod+2)),c
  9149  000BC4  6A24               	clrf	((c:i2___flmul@prod+3)),c
  9150  000BC6  6A25               
  9151                           	line	98
  9152                           	movf	(0+((c:i2___flmul@a)+01h)),c,w
  9153  000BC8  5014               	mulwf	(0+((c:i2___flmul@b)+01h)),c
  9154  000BCA  0210               	movff	prodl,(c:i2___flmul@temp)
  9155  000BCC  CFF3 F026          	movff	prodh,(c:i2___flmul@temp+1)
  9156  000BD0  CFF4 F027          	line	99
  9157                           	
  9158                           i2l2620:
  9159  000BD4                     	movf	((c:i2___flmul@temp)),c,w
  9160  000BD4  5026               	addwf	((c:i2___flmul@grs)),c
  9161  000BD6  261C               	movlw	0
  9162  000BD8  0E00               	addwfc	((c:i2___flmul@grs+1)),c
  9163  000BDA  221D               	addwfc	((c:i2___flmul@grs+2)),c
  9164  000BDC  221E               	addwfc	((c:i2___flmul@grs+3)),c
  9165  000BDE  221F               	line	100
  9166                           	
  9167                           i2l2622:
  9168  000BE0                     	movf	(0+((c:i2___flmul@temp)+01h)),c,w
  9169  000BE0  5027               	addwf	((c:i2___flmul@prod)),c
  9170  000BE2  2622               	movlw	0
  9171  000BE4  0E00               	addwfc	((c:i2___flmul@prod+1)),c
  9172  000BE6  2223               	addwfc	((c:i2___flmul@prod+2)),c
  9173  000BE8  2224               	addwfc	((c:i2___flmul@prod+3)),c
  9174  000BEA  2225               	line	101
  9175                           	movf	((c:i2___flmul@a)),c,w
  9176  000BEC  5013               	mulwf	(0+((c:i2___flmul@b)+02h)),c
  9177  000BEE  0211               	movff	prodl,(c:i2___flmul@temp)
  9178  000BF0  CFF3 F026          	movff	prodh,(c:i2___flmul@temp+1)
  9179  000BF4  CFF4 F027          	line	102
  9180                           	
  9181                           i2l2624:
  9182  000BF8                     	movf	((c:i2___flmul@temp)),c,w
  9183  000BF8  5026               	addwf	((c:i2___flmul@grs)),c
  9184  000BFA  261C               	movlw	0
  9185  000BFC  0E00               	addwfc	((c:i2___flmul@grs+1)),c
  9186  000BFE  221D               	addwfc	((c:i2___flmul@grs+2)),c
  9187  000C00  221E               	addwfc	((c:i2___flmul@grs+3)),c
  9188  000C02  221F               	line	103
  9189                           	
  9190                           i2l2626:
  9191  000C04                     	movf	(0+((c:i2___flmul@temp)+01h)),c,w
  9192  000C04  5027               	addwf	((c:i2___flmul@prod)),c
  9193  000C06  2622               	movlw	0
  9194  000C08  0E00               	addwfc	((c:i2___flmul@prod+1)),c
  9195  000C0A  2223               	addwfc	((c:i2___flmul@prod+2)),c
  9196  000C0C  2224               	addwfc	((c:i2___flmul@prod+3)),c
  9197  000C0E  2225               	line	104
  9198                           	
  9199                           i2l2628:
  9200  000C10                     	movff	(c:i2___flmul@grs+2),(c:i2___flmul@grs+3)
  9201  000C10  C01E  F01F         	movff	(c:i2___flmul@grs+1),(c:i2___flmul@grs+2)
  9202  000C14  C01D  F01E         	movff	(c:i2___flmul@grs),(c:i2___flmul@grs+1)
  9203  000C18  C01C  F01D         	clrf	((c:i2___flmul@grs)),c
  9204  000C1C  6A1C               	line	105
  9205                           	
  9206                           i2l2630:
  9207  000C1E                     	movf	((c:i2___flmul@a)),c,w
  9208  000C1E  5013               	mulwf	(0+((c:i2___flmul@b)+01h)),c
  9209  000C20  0210               	movff	prodl,(c:i2___flmul@temp)
  9210  000C22  CFF3 F026          	movff	prodh,(c:i2___flmul@temp+1)
  9211  000C26  CFF4 F027          	line	106
  9212                           	
  9213                           i2l2632:
  9214  000C2A                     	movf	((c:i2___flmul@temp)),c,w
  9215  000C2A  5026               	addwf	((c:i2___flmul@grs)),c
  9216  000C2C  261C               	movf	((c:i2___flmul@temp+1)),c,w
  9217  000C2E  5027               	addwfc	((c:i2___flmul@grs+1)),c
  9218  000C30  221D               	movlw	0
  9219  000C32  0E00               	addwfc	((c:i2___flmul@grs+2)),c
  9220  000C34  221E               	movlw	0
  9221  000C36  0E00               	addwfc	((c:i2___flmul@grs+3)),c
  9222  000C38  221F               
  9223                           	line	107
  9224                           	
  9225                           i2l2634:
  9226  000C3A                     	movf	(0+((c:i2___flmul@a)+01h)),c,w
  9227  000C3A  5014               	mulwf	((c:i2___flmul@b)),c
  9228  000C3C  020F               	movff	prodl,(c:i2___flmul@temp)
  9229  000C3E  CFF3 F026          	movff	prodh,(c:i2___flmul@temp+1)
  9230  000C42  CFF4 F027          	line	108
  9231                           	
  9232                           i2l2636:
  9233  000C46                     	movf	((c:i2___flmul@temp)),c,w
  9234  000C46  5026               	addwf	((c:i2___flmul@grs)),c
  9235  000C48  261C               	movf	((c:i2___flmul@temp+1)),c,w
  9236  000C4A  5027               	addwfc	((c:i2___flmul@grs+1)),c
  9237  000C4C  221D               	movlw	0
  9238  000C4E  0E00               	addwfc	((c:i2___flmul@grs+2)),c
  9239  000C50  221E               	movlw	0
  9240  000C52  0E00               	addwfc	((c:i2___flmul@grs+3)),c
  9241  000C54  221F               
  9242                           	line	109
  9243                           	
  9244                           i2l2638:
  9245  000C56                     	movff	(c:i2___flmul@grs+2),(c:i2___flmul@grs+3)
  9246  000C56  C01E  F01F         	movff	(c:i2___flmul@grs+1),(c:i2___flmul@grs+2)
  9247  000C5A  C01D  F01E         	movff	(c:i2___flmul@grs),(c:i2___flmul@grs+1)
  9248  000C5E  C01C  F01D         	clrf	((c:i2___flmul@grs)),c
  9249  000C62  6A1C               	line	110
  9250                           	movf	((c:i2___flmul@a)),c,w
  9251  000C64  5013               	mulwf	((c:i2___flmul@b)),c
  9252  000C66  020F               	movff	prodl,(c:i2___flmul@temp)
  9253  000C68  CFF3 F026          	movff	prodh,(c:i2___flmul@temp+1)
  9254  000C6C  CFF4 F027          	line	111
  9255                           	
  9256                           i2l2640:
  9257  000C70                     	movf	((c:i2___flmul@temp)),c,w
  9258  000C70  5026               	addwf	((c:i2___flmul@grs)),c
  9259  000C72  261C               	movf	((c:i2___flmul@temp+1)),c,w
  9260  000C74  5027               	addwfc	((c:i2___flmul@grs+1)),c
  9261  000C76  221D               	movlw	0
  9262  000C78  0E00               	addwfc	((c:i2___flmul@grs+2)),c
  9263  000C7A  221E               	movlw	0
  9264  000C7C  0E00               	addwfc	((c:i2___flmul@grs+3)),c
  9265  000C7E  221F               
  9266                           	line	112
  9267                           	
  9268                           i2l2642:
  9269  000C80                     	movf	(0+((c:i2___flmul@a)+02h)),c,w
  9270  000C80  5015               	mulwf	(0+((c:i2___flmul@b)+01h)),c
  9271  000C82  0210               	movff	prodl,(c:i2___flmul@temp)
  9272  000C84  CFF3 F026          	movff	prodh,(c:i2___flmul@temp+1)
  9273  000C88  CFF4 F027          	line	113
  9274                           	movf	((c:i2___flmul@temp)),c,w
  9275  000C8C  5026               	addwf	((c:i2___flmul@prod)),c
  9276  000C8E  2622               	movf	((c:i2___flmul@temp+1)),c,w
  9277  000C90  5027               	addwfc	((c:i2___flmul@prod+1)),c
  9278  000C92  2223               	movlw	0
  9279  000C94  0E00               	addwfc	((c:i2___flmul@prod+2)),c
  9280  000C96  2224               	movlw	0
  9281  000C98  0E00               	addwfc	((c:i2___flmul@prod+3)),c
  9282  000C9A  2225               
  9283                           	line	114
  9284                           	
  9285                           i2l2644:
  9286  000C9C                     	movf	(0+((c:i2___flmul@a)+01h)),c,w
  9287  000C9C  5014               	mulwf	(0+((c:i2___flmul@b)+02h)),c
  9288  000C9E  0211               	movff	prodl,(c:i2___flmul@temp)
  9289  000CA0  CFF3 F026          	movff	prodh,(c:i2___flmul@temp+1)
  9290  000CA4  CFF4 F027          	line	115
  9291                           	
  9292                           i2l2646:
  9293  000CA8                     	movf	((c:i2___flmul@temp)),c,w
  9294  000CA8  5026               	addwf	((c:i2___flmul@prod)),c
  9295  000CAA  2622               	movf	((c:i2___flmul@temp+1)),c,w
  9296  000CAC  5027               	addwfc	((c:i2___flmul@prod+1)),c
  9297  000CAE  2223               	movlw	0
  9298  000CB0  0E00               	addwfc	((c:i2___flmul@prod+2)),c
  9299  000CB2  2224               	movlw	0
  9300  000CB4  0E00               	addwfc	((c:i2___flmul@prod+3)),c
  9301  000CB6  2225               
  9302                           	line	116
  9303                           	movf	(0+((c:i2___flmul@a)+02h)),c,w
  9304  000CB8  5015               	mulwf	(0+((c:i2___flmul@b)+02h)),c
  9305  000CBA  0211               	movff	prodl,(c:i2___flmul@temp)
  9306  000CBC  CFF3 F026          	movff	prodh,(c:i2___flmul@temp+1)
  9307  000CC0  CFF4 F027          	line	117
  9308                           	
  9309                           i2l2648:
  9310  000CC4                     	movf	((c:i2___flmul@temp)),c,w
  9311  000CC4  5026               	movwf	(??i2___flmul+0+0)&0ffh,c
  9312  000CC6  6E17               	movf	((c:i2___flmul@temp+1)),c,w
  9313  000CC8  5027               	movwf	1+(??i2___flmul+0+0)&0ffh,c
  9314  000CCA  6E18               	
  9315                           	clrf	2+(??i2___flmul+0+0)&0ffh,c
  9316  000CCC  6A19               	
  9317                           	clrf	3+(??i2___flmul+0+0)&0ffh,c
  9318  000CCE  6A1A               	movff	??i2___flmul+0+2,??i2___flmul+0+3
  9319  000CD0  C019  F01A         	movff	??i2___flmul+0+1,??i2___flmul+0+2
  9320  000CD4  C018  F019         	movff	??i2___flmul+0+0,??i2___flmul+0+1
  9321  000CD8  C017  F018         	clrf	(??i2___flmul+0+0),c
  9322  000CDC  6A17               	movf	(??i2___flmul+0+0),c,w
  9323  000CDE  5017               	addwf	((c:i2___flmul@prod)),c
  9324  000CE0  2622               	movf	(??i2___flmul+0+1),c,w
  9325  000CE2  5018               	addwfc	((c:i2___flmul@prod+1)),c
  9326  000CE4  2223               	movf	(??i2___flmul+0+2),c,w
  9327  000CE6  5019               	addwfc	((c:i2___flmul@prod+2)),c
  9328  000CE8  2224               	movf	(??i2___flmul+0+3),c,w
  9329  000CEA  501A               	addwfc	((c:i2___flmul@prod+3)),c
  9330  000CEC  2225               
  9331                           	line	145
  9332                           	
  9333                           i2l2650:
  9334  000CEE                     	movff	(c:i2___flmul@grs),??i2___flmul+0+0
  9335  000CEE  C01C  F017         	movff	(c:i2___flmul@grs+1),??i2___flmul+0+0+1
  9336  000CF2  C01D  F018         	movff	(c:i2___flmul@grs+2),??i2___flmul+0+0+2
  9337  000CF6  C01E  F019         	movff	(c:i2___flmul@grs+3),??i2___flmul+0+0+3
  9338  000CFA  C01F  F01A         	movlw	018h+1
  9339  000CFE  0E19               	goto	i2u230_40
  9340  000D00  EF87  F006         i2u230_45:
  9341  000D04                     	bcf	status,0
  9342  000D04  90D8               	rrcf	(??i2___flmul+0+3),c
  9343  000D06  321A               	rrcf	(??i2___flmul+0+2),c
  9344  000D08  3219               	rrcf	(??i2___flmul+0+1),c
  9345  000D0A  3218               	rrcf	(??i2___flmul+0+0),c
  9346  000D0C  3217               i2u230_40:
  9347  000D0E                     	decfsz	wreg
  9348  000D0E  2EE8               	goto	i2u230_45
  9349  000D10  EF82  F006         	movf	(??i2___flmul+0+0),c,w
  9350  000D14  5017               	addwf	((c:i2___flmul@prod)),c
  9351  000D16  2622               	movf	(??i2___flmul+0+1),c,w
  9352  000D18  5018               	addwfc	((c:i2___flmul@prod+1)),c
  9353  000D1A  2223               	movf	(??i2___flmul+0+2),c,w
  9354  000D1C  5019               	addwfc	((c:i2___flmul@prod+2)),c
  9355  000D1E  2224               	movf	(??i2___flmul+0+3),c,w
  9356  000D20  501A               	addwfc	((c:i2___flmul@prod+3)),c
  9357  000D22  2225               
  9358                           	line	146
  9359                           	
  9360                           i2l2652:
  9361  000D24                     	movff	(c:i2___flmul@grs+2),(c:i2___flmul@grs+3)
  9362  000D24  C01E  F01F         	movff	(c:i2___flmul@grs+1),(c:i2___flmul@grs+2)
  9363  000D28  C01D  F01E         	movff	(c:i2___flmul@grs),(c:i2___flmul@grs+1)
  9364  000D2C  C01C  F01D         	clrf	((c:i2___flmul@grs)),c
  9365  000D30  6A1C               	line	149
  9366                           	
  9367                           i2l2654:
  9368  000D32                     	movf	((c:i2___flmul@aexp)),c,w
  9369  000D32  5020               	movff	(c:i2___flmul@bexp),??i2___flmul+0+0
  9370  000D34  C021  F017         	clrf	(??i2___flmul+0+0+1)&0ffh,c
  9371  000D38  6A18               	addwf	(??i2___flmul+0+0),c
  9372  000D3A  2617               	movlw	0
  9373  000D3C  0E00               	addwfc	(??i2___flmul+0+1),c
  9374  000D3E  2218               	movlw	low(-126)
  9375  000D40  0E82               	addwf	(??i2___flmul+0+0),c,w
  9376  000D42  2417               	movwf	((c:i2___flmul@temp)),c
  9377  000D44  6E26               	movlw	high(-126)
  9378  000D46  0EFF               	addwfc	(??i2___flmul+0+1),c,w
  9379  000D48  2018               	movwf	1+((c:i2___flmul@temp)),c
  9380  000D4A  6E27               	line	152
  9381                           	goto	i2l2662
  9382  000D4C  EFBF  F006         	
  9383                           i2l860:
  9384  000D50                     	line	153
  9385                           	
  9386                           i2l2656:
  9387  000D50                     	bcf	status,0
  9388  000D50  90D8               	rlcf	((c:i2___flmul@prod)),c
  9389  000D52  3622               	rlcf	((c:i2___flmul@prod+1)),c
  9390  000D54  3623               	rlcf	((c:i2___flmul@prod+2)),c
  9391  000D56  3624               	rlcf	((c:i2___flmul@prod+3)),c
  9392  000D58  3625               	line	154
  9393                           	
  9394                           i2l2658:
  9395  000D5A                     	
  9396                           	btfss	((c:i2___flmul@grs+3)),c,(31)&7
  9397  000D5A  AE1F               	goto	i2u231_41
  9398  000D5C  EFB2  F006         	goto	i2u231_40
  9399  000D60  EFB4  F006         i2u231_41:
  9400  000D64                     	goto	i2l861
  9401  000D64  EFB5  F006         i2u231_40:
  9402  000D68                     	line	155
  9403                           	
  9404                           i2l2660:
  9405  000D68                     	bsf	(0+(0/8)+(c:i2___flmul@prod)),c,(0)&7
  9406  000D68  8022               	line	156
  9407                           	
  9408                           i2l861:
  9409  000D6A                     	line	157
  9410                           	bcf	status,0
  9411  000D6A  90D8               	rlcf	((c:i2___flmul@grs)),c
  9412  000D6C  361C               	rlcf	((c:i2___flmul@grs+1)),c
  9413  000D6E  361D               	rlcf	((c:i2___flmul@grs+2)),c
  9414  000D70  361E               	rlcf	((c:i2___flmul@grs+3)),c
  9415  000D72  361F               	line	158
  9416                           	decf	((c:i2___flmul@temp)),c
  9417  000D74  0626               	btfss	status,0
  9418  000D76  A0D8               	decf	((c:i2___flmul@temp+1)),c
  9419  000D78  0627               	goto	i2l2662
  9420  000D7A  EFBF  F006         	line	159
  9421                           	
  9422                           i2l859:
  9423  000D7E                     	line	152
  9424                           	
  9425                           i2l2662:
  9426  000D7E                     	
  9427                           	btfss	((c:i2___flmul@prod+2)),c,(23)&7
  9428  000D7E  AE24               	goto	i2u232_41
  9429  000D80  EFC4  F006         	goto	i2u232_40
  9430  000D84  EFC6  F006         i2u232_41:
  9431  000D88                     	goto	i2l2656
  9432  000D88  EFA8  F006         i2u232_40:
  9433  000D8C                     	goto	i2l2664
  9434  000D8C  EFC8  F006         	
  9435                           i2l862:
  9436  000D90                     	line	163
  9437                           	
  9438                           i2l2664:
  9439  000D90                     	movlw	low(0)
  9440  000D90  0E00               	movwf	((c:i2___flmul@aexp)),c
  9441  000D92  6E20               	line	164
  9442                           	
  9443                           i2l2666:
  9444  000D94                     	
  9445                           	btfss	((c:i2___flmul@grs+3)),c,(31)&7
  9446  000D94  AE1F               	goto	i2u233_41
  9447  000D96  EFCF  F006         	goto	i2u233_40
  9448  000D9A  EFD1  F006         i2u233_41:
  9449  000D9E                     	goto	i2l863
  9450  000D9E  EFF9  F006         i2u233_40:
  9451  000DA2                     	line	165
  9452                           	
  9453                           i2l2668:
  9454  000DA2                     	movlw	0FFh
  9455  000DA2  0EFF               	andwf	((c:i2___flmul@grs)),c,w
  9456  000DA4  141C               	movwf	(??i2___flmul+0+0)&0ffh,c
  9457  000DA6  6E17               	movlw	0FFh
  9458  000DA8  0EFF               	andwf	((c:i2___flmul@grs+1)),c,w
  9459  000DAA  141D               	movwf	1+(??i2___flmul+0+0)&0ffh,c
  9460  000DAC  6E18               	
  9461                           	movlw	0FFh
  9462  000DAE  0EFF               	andwf	((c:i2___flmul@grs+2)),c,w
  9463  000DB0  141E               	movwf	2+(??i2___flmul+0+0)&0ffh,c
  9464  000DB2  6E19               	
  9465                           	movlw	07Fh
  9466  000DB4  0E7F               	andwf	((c:i2___flmul@grs+3)),c,w
  9467  000DB6  141F               	movwf	3+(??i2___flmul+0+0)&0ffh,c
  9468  000DB8  6E1A               	movf	(??i2___flmul+0+0),c,w
  9469  000DBA  5017               iorwf	(??i2___flmul+0+1),c,w
  9470  000DBC  1018               iorwf	(??i2___flmul+0+2),c,w
  9471  000DBE  1019               iorwf	(??i2___flmul+0+3),c,w
  9472  000DC0  101A               	btfsc	status,2
  9473  000DC2  B4D8               	goto	i2u234_41
  9474  000DC4  EFE6  F006         	goto	i2u234_40
  9475  000DC8  EFE8  F006         
  9476                           i2u234_41:
  9477  000DCC                     	goto	i2l864
  9478  000DCC  EFEC  F006         i2u234_40:
  9479  000DD0                     	line	166
  9480                           	
  9481                           i2l2670:
  9482  000DD0                     	movlw	low(01h)
  9483  000DD0  0E01               	movwf	((c:i2___flmul@aexp)),c
  9484  000DD2  6E20               	line	167
  9485                           	goto	i2l863
  9486  000DD4  EFF9  F006         	line	168
  9487                           	
  9488                           i2l864:
  9489  000DD8                     	line	169
  9490                           	
  9491                           	btfss	((c:i2___flmul@prod)),c,(0)&7
  9492  000DD8  A022               	goto	i2u235_41
  9493  000DDA  EFF1  F006         	goto	i2u235_40
  9494  000DDE  EFF3  F006         i2u235_41:
  9495  000DE2                     	goto	i2l863
  9496  000DE2  EFF9  F006         i2u235_40:
  9497  000DE6                     	line	170
  9498                           	
  9499                           i2l2672:
  9500  000DE6                     	movlw	low(01h)
  9501  000DE6  0E01               	movwf	((c:i2___flmul@aexp)),c
  9502  000DE8  6E20               	goto	i2l863
  9503  000DEA  EFF9  F006         	line	171
  9504                           	
  9505                           i2l866:
  9506  000DEE                     	goto	i2l863
  9507  000DEE  EFF9  F006         	line	172
  9508                           	
  9509                           i2l865:
  9510  000DF2                     	line	173
  9511                           	
  9512                           i2l863:
  9513  000DF2                     	line	174
  9514                           	movf	((c:i2___flmul@aexp)),c,w
  9515  000DF2  5020               	btfsc	status,2
  9516  000DF4  B4D8               	goto	i2u236_41
  9517  000DF6  EFFF  F006         	goto	i2u236_40
  9518  000DFA  EF01  F007         i2u236_41:
  9519  000DFE                     	goto	i2l2682
  9520  000DFE  EF29  F007         i2u236_40:
  9521  000E02                     	line	175
  9522                           	
  9523                           i2l2674:
  9524  000E02                     	movlw	low(01h)
  9525  000E02  0E01               	addwf	((c:i2___flmul@prod)),c
  9526  000E04  2622               	movlw	0
  9527  000E06  0E00               	addwfc	((c:i2___flmul@prod+1)),c
  9528  000E08  2223               	addwfc	((c:i2___flmul@prod+2)),c
  9529  000E0A  2224               	addwfc	((c:i2___flmul@prod+3)),c
  9530  000E0C  2225               	line	176
  9531                           	
  9532                           i2l2676:
  9533  000E0E                     	
  9534                           	btfss	((c:i2___flmul@prod+3)),c,(24)&7
  9535  000E0E  A025               	goto	i2u237_41
  9536  000E10  EF0C  F007         	goto	i2u237_40
  9537  000E14  EF0E  F007         i2u237_41:
  9538  000E18                     	goto	i2l2682
  9539  000E18  EF29  F007         i2u237_40:
  9540  000E1C                     	line	177
  9541                           	
  9542                           i2l2678:
  9543  000E1C                     	movff	(c:i2___flmul@prod),??i2___flmul+0+0
  9544  000E1C  C022  F017         	movff	(c:i2___flmul@prod+1),??i2___flmul+0+0+1
  9545  000E20  C023  F018         	movff	(c:i2___flmul@prod+2),??i2___flmul+0+0+2
  9546  000E24  C024  F019         	movff	(c:i2___flmul@prod+3),??i2___flmul+0+0+3
  9547  000E28  C025  F01A         	rlcf	(??i2___flmul+0+3),c,w
  9548  000E2C  341A               	rrcf	(??i2___flmul+0+3),c
  9549  000E2E  321A               	rrcf	(??i2___flmul+0+2),c
  9550  000E30  3219               	rrcf	(??i2___flmul+0+1),c
  9551  000E32  3218               	rrcf	(??i2___flmul+0+0),c
  9552  000E34  3217               	movff	??i2___flmul+0+0,(c:i2___flmul@prod)
  9553  000E36  C017  F022         	movff	??i2___flmul+0+1,(c:i2___flmul@prod+1)
  9554  000E3A  C018  F023         	movff	??i2___flmul+0+2,(c:i2___flmul@prod+2)
  9555  000E3E  C019  F024         	movff	??i2___flmul+0+3,(c:i2___flmul@prod+3)
  9556  000E42  C01A  F025         	line	178
  9557                           	
  9558                           i2l2680:
  9559  000E46                     	infsnz	((c:i2___flmul@temp)),c
  9560  000E46  4A26               	incf	((c:i2___flmul@temp+1)),c
  9561  000E48  2A27               	goto	i2l2682
  9562  000E4A  EF29  F007         	line	179
  9563                           	
  9564                           i2l868:
  9565  000E4E                     	goto	i2l2682
  9566  000E4E  EF29  F007         	line	180
  9567                           	
  9568                           i2l867:
  9569  000E52                     	line	183
  9570                           	
  9571                           i2l2682:
  9572  000E52                     	btfsc	((c:i2___flmul@temp+1)),c,7
  9573  000E52  BE27               	goto	i2u238_41
  9574  000E54  EF34  F007         	movf	((c:i2___flmul@temp+1)),c,w
  9575  000E58  5027               	bnz	i2u238_40
  9576  000E5A  E108               	incf	((c:i2___flmul@temp)),c,w
  9577  000E5C  2826               	btfss	status,0
  9578  000E5E  A0D8               	goto	i2u238_41
  9579  000E60  EF34  F007         	goto	i2u238_40
  9580  000E64  EF36  F007         
  9581                           i2u238_41:
  9582  000E68                     	goto	i2l2686
  9583  000E68  EF40  F007         i2u238_40:
  9584  000E6C                     	line	184
  9585                           	
  9586                           i2l2684:
  9587  000E6C                     	movlw	low(07F800000h)
  9588  000E6C  0E00               	movwf	((c:i2___flmul@prod)),c
  9589  000E6E  6E22               	movlw	high(07F800000h)
  9590  000E70  0E00               	movwf	((c:i2___flmul@prod+1)),c
  9591  000E72  6E23               	movlw	low highword(07F800000h)
  9592  000E74  0E80               	movwf	((c:i2___flmul@prod+2)),c
  9593  000E76  6E24               	movlw	high highword(07F800000h)
  9594  000E78  0E7F               	movwf	((c:i2___flmul@prod+3)),c
  9595  000E7A  6E25               	line	185
  9596                           	goto	i2l2698
  9597  000E7C  EF74  F007         	line	187
  9598                           	
  9599                           i2l869:
  9600  000E80                     	
  9601                           i2l2686:
  9602  000E80                     	btfsc	((c:i2___flmul@temp+1)),c,7
  9603  000E80  BE27               	goto	i2u239_40
  9604  000E82  EF4D  F007         	movf	((c:i2___flmul@temp+1)),c,w
  9605  000E86  5027               	bnz	i2u239_41
  9606  000E88  E106               	decf	((c:i2___flmul@temp)),c,w
  9607  000E8A  0426               	btfsc	status,0
  9608  000E8C  B0D8               	goto	i2u239_41
  9609  000E8E  EF4B  F007         	goto	i2u239_40
  9610  000E92  EF4D  F007         
  9611                           i2u239_41:
  9612  000E96                     	goto	i2l871
  9613  000E96  EF59  F007         i2u239_40:
  9614  000E9A                     	line	188
  9615                           	
  9616                           i2l2688:
  9617  000E9A                     	movlw	low(0)
  9618  000E9A  0E00               	movwf	((c:i2___flmul@prod)),c
  9619  000E9C  6E22               	movlw	high(0)
  9620  000E9E  0E00               	movwf	((c:i2___flmul@prod+1)),c
  9621  000EA0  6E23               	movlw	low highword(0)
  9622  000EA2  0E00               	movwf	((c:i2___flmul@prod+2)),c
  9623  000EA4  6E24               	movlw	high highword(0)
  9624  000EA6  0E00               	movwf	((c:i2___flmul@prod+3)),c
  9625  000EA8  6E25               	line	190
  9626                           	movlw	low(0)
  9627  000EAA  0E00               	movwf	((c:i2___flmul@sign)),c
  9628  000EAC  6E1B               	line	191
  9629                           	goto	i2l2698
  9630  000EAE  EF74  F007         	line	192
  9631                           	
  9632                           i2l871:
  9633  000EB2                     	line	194
  9634                           	movff	(c:i2___flmul@temp),(c:i2___flmul@bexp)
  9635  000EB2  C026  F021         	line	195
  9636                           	
  9637                           i2l2690:
  9638  000EB6                     	movlw	0FFh
  9639  000EB6  0EFF               	andwf	((c:i2___flmul@prod)),c
  9640  000EB8  1622               	movlw	0FFh
  9641  000EBA  0EFF               	andwf	((c:i2___flmul@prod+1)),c
  9642  000EBC  1623               	movlw	07Fh
  9643  000EBE  0E7F               	andwf	((c:i2___flmul@prod+2)),c
  9644  000EC0  1624               	movlw	0
  9645  000EC2  0E00               	andwf	((c:i2___flmul@prod+3)),c
  9646  000EC4  1625               	line	196
  9647                           	
  9648                           i2l2692:
  9649  000EC6                     	
  9650                           	btfss	((c:i2___flmul@bexp)),c,(0)&7
  9651  000EC6  A021               	goto	i2u240_41
  9652  000EC8  EF68  F007         	goto	i2u240_40
  9653  000ECC  EF6A  F007         i2u240_41:
  9654  000ED0                     	goto	i2l2696
  9655  000ED0  EF6D  F007         i2u240_40:
  9656  000ED4                     	line	197
  9657                           	
  9658                           i2l2694:
  9659  000ED4                     	bsf	(0+(7/8)+0+((c:i2___flmul@prod)+02h)),c,(7)&7
  9660  000ED4  8E24               	goto	i2l2696
  9661  000ED6  EF6D  F007         	line	198
  9662                           	
  9663                           i2l873:
  9664  000EDA                     	line	199
  9665                           	
  9666                           i2l2696:
  9667  000EDA                     	bcf	status,0
  9668  000EDA  90D8               	rrcf	((c:i2___flmul@bexp)),c,w
  9669  000EDC  3021               	movwf	(0+((c:i2___flmul@prod)+03h)),c
  9670  000EDE  6E25               	goto	i2l2698
  9671  000EE0  EF74  F007         	line	200
  9672                           	
  9673                           i2l872:
  9674  000EE4                     	goto	i2l2698
  9675  000EE4  EF74  F007         	
  9676                           i2l870:
  9677  000EE8                     	line	201
  9678                           	
  9679                           i2l2698:
  9680  000EE8                     	movf	((c:i2___flmul@sign)),c,w
  9681  000EE8  501B               	iorwf	(0+((c:i2___flmul@prod)+03h)),c
  9682  000EEA  1225               	line	203
  9683                           	
  9684                           i2l2700:
  9685  000EEC                     	movff	(c:i2___flmul@prod),(c:?i2___flmul)
  9686  000EEC  C022  F00F         	movff	(c:i2___flmul@prod+1),(c:?i2___flmul+1)
  9687  000EF0  C023  F010         	movff	(c:i2___flmul@prod+2),(c:?i2___flmul+2)
  9688  000EF4  C024  F011         	movff	(c:i2___flmul@prod+3),(c:?i2___flmul+3)
  9689  000EF8  C025  F012         	goto	i2l858
  9690  000EFC  EF80  F007         	
  9691                           i2l2702:
  9692  000F00                     	line	205
  9693                           	
  9694                           i2l858:
  9695  000F00                     	return	;funcret
  9696  000F00  0012               	opt stack 0
  9697                           GLOBAL	__end_ofi2___flmul
  9698                           	__end_ofi2___flmul:
  9699  000F02                     	signat	i2___flmul,92
  9700                           	global	i2___awdiv
  9701                           
  9702 ;; *************** function i2___awdiv *****************
  9703 ;; Defined at:
  9704 ;;		line 7 in file "C:\Program Files (x86)\Microchip\xc8\v2.00\pic\sources\c99\common\awdiv.c"
  9705 ;; Parameters:    Size  Location     Type
  9706 ;;  dividend        2    0[COMRAM] int 
  9707 ;;  divisor         2    2[COMRAM] int 
  9708 ;; Auto vars:     Size  Location     Type
  9709 ;;  __awdiv         2    6[COMRAM] int 
  9710 ;;  __awdiv         1    5[COMRAM] unsigned char 
  9711 ;;  __awdiv         1    4[COMRAM] unsigned char 
  9712 ;; Return value:  Size  Location     Type
  9713 ;;                  2    0[COMRAM] int 
  9714 ;; Registers used:
  9715 ;;		wreg, status,2, status,0
  9716 ;; Tracked objects:
  9717 ;;		On entry : 0/0
  9718 ;;		On exit  : 0/0
  9719 ;;		Unchanged: 0/0
  9720 ;; Data sizes:     COMRAM   BANK0   BANK1   BANK2   BANK3   BANK4   BANK5
  9721 ;;      Params:         4       0       0       0       0       0       0
  9722 ;;      Locals:         4       0       0       0       0       0       0
  9723 ;;      Temps:          0       0       0       0       0       0       0
  9724 ;;      Totals:         8       0       0       0       0       0       0
  9725 ;;Total ram usage:        8 bytes
  9726 ;; Hardware stack levels used:    1
  9727 ;; This function calls:
  9728 ;;		Nothing
  9729 ;; This function is called by:
  9730 ;;		_Hi_ISR
  9731 ;;		i2_PrintVoltage
  9732 ;; This function uses a non-reentrant model
  9733 ;;
  9734                           psect	text37,class=CODE,space=0,reloc=2,group=0
  9735                           	file	"C:\Program Files (x86)\Microchip\xc8\v2.00\pic\sources\c99\common\awdiv.c"
  9736                           	line	7
  9737                           global __ptext37
  9738                           __ptext37:
  9739  001E2E                     psect	text37
  9740                           	file	"C:\Program Files (x86)\Microchip\xc8\v2.00\pic\sources\c99\common\awdiv.c"
  9741                           	line	7
  9742                           	global	__size_ofi2___awdiv
  9743                           	__size_ofi2___awdiv	equ	__end_ofi2___awdiv-i2___awdiv
  9744  0000                     	
  9745                           i2___awdiv:
  9746  001E2E                     ;incstack = 0
  9747                           	opt	stack 23
  9748                           	line	13
  9749                           	
  9750                           i2l2486:
  9751  001E2E                     	movlw	low(0)
  9752  001E2E  0E00               	movwf	((c:i2___awdiv@sign)),c
  9753  001E30  6E06               	line	14
  9754                           	
  9755                           i2l2488:
  9756  001E32                     	btfsc	((c:i2___awdiv@divisor+1)),c,7
  9757  001E32  BE04               	goto	i2u209_40
  9758  001E34  EF20  F00F         	goto	i2u209_41
  9759  001E38  EF1E  F00F         
  9760                           i2u209_41:
  9761  001E3C                     	goto	i2l2494
  9762  001E3C  EF28  F00F         i2u209_40:
  9763  001E40                     	line	15
  9764                           	
  9765                           i2l2490:
  9766  001E40                     	negf	((c:i2___awdiv@divisor)),c
  9767  001E40  6C03               	comf	((c:i2___awdiv@divisor+1)),c
  9768  001E42  1E04               	btfsc	status,0
  9769  001E44  B0D8               	incf	((c:i2___awdiv@divisor+1)),c
  9770  001E46  2A04               	line	16
  9771                           	
  9772                           i2l2492:
  9773  001E48                     	movlw	low(01h)
  9774  001E48  0E01               	movwf	((c:i2___awdiv@sign)),c
  9775  001E4A  6E06               	goto	i2l2494
  9776  001E4C  EF28  F00F         	line	17
  9777                           	
  9778                           i2l461:
  9779  001E50                     	line	18
  9780                           	
  9781                           i2l2494:
  9782  001E50                     	btfsc	((c:i2___awdiv@dividend+1)),c,7
  9783  001E50  BE02               	goto	i2u210_40
  9784  001E52  EF2F  F00F         	goto	i2u210_41
  9785  001E56  EF2D  F00F         
  9786                           i2u210_41:
  9787  001E5A                     	goto	i2l2500
  9788  001E5A  EF37  F00F         i2u210_40:
  9789  001E5E                     	line	19
  9790                           	
  9791                           i2l2496:
  9792  001E5E                     	negf	((c:i2___awdiv@dividend)),c
  9793  001E5E  6C01               	comf	((c:i2___awdiv@dividend+1)),c
  9794  001E60  1E02               	btfsc	status,0
  9795  001E62  B0D8               	incf	((c:i2___awdiv@dividend+1)),c
  9796  001E64  2A02               	line	20
  9797                           	
  9798                           i2l2498:
  9799  001E66                     	movlw	(01h)&0ffh
  9800  001E66  0E01               	xorwf	((c:i2___awdiv@sign)),c
  9801  001E68  1A06               	goto	i2l2500
  9802  001E6A  EF37  F00F         	line	21
  9803                           	
  9804                           i2l462:
  9805  001E6E                     	line	22
  9806                           	
  9807                           i2l2500:
  9808  001E6E                     	movlw	high(0)
  9809  001E6E  0E00               	movwf	((c:i2___awdiv@quotient+1)),c
  9810  001E70  6E08               	movlw	low(0)
  9811  001E72  0E00               	movwf	((c:i2___awdiv@quotient)),c
  9812  001E74  6E07               	line	23
  9813                           	
  9814                           i2l2502:
  9815  001E76                     	movf	((c:i2___awdiv@divisor)),c,w
  9816  001E76  5003               iorwf	((c:i2___awdiv@divisor+1)),c,w
  9817  001E78  1004               	btfsc	status,2
  9818  001E7A  B4D8               	goto	i2u211_41
  9819  001E7C  EF42  F00F         	goto	i2u211_40
  9820  001E80  EF44  F00F         
  9821                           i2u211_41:
  9822  001E84                     	goto	i2l2522
  9823  001E84  EF78  F00F         i2u211_40:
  9824  001E88                     	line	24
  9825                           	
  9826                           i2l2504:
  9827  001E88                     	movlw	low(01h)
  9828  001E88  0E01               	movwf	((c:i2___awdiv@counter)),c
  9829  001E8A  6E05               	line	25
  9830                           	goto	i2l2508
  9831  001E8C  EF4E  F00F         	
  9832                           i2l465:
  9833  001E90                     	line	26
  9834                           	
  9835                           i2l2506:
  9836  001E90                     	bcf	status,0
  9837  001E90  90D8               	rlcf	((c:i2___awdiv@divisor)),c
  9838  001E92  3603               	rlcf	((c:i2___awdiv@divisor+1)),c
  9839  001E94  3604               	line	27
  9840                           	incf	((c:i2___awdiv@counter)),c
  9841  001E96  2A05               	goto	i2l2508
  9842  001E98  EF4E  F00F         	line	28
  9843                           	
  9844                           i2l464:
  9845  001E9C                     	line	25
  9846                           	
  9847                           i2l2508:
  9848  001E9C                     	
  9849                           	btfss	((c:i2___awdiv@divisor+1)),c,(15)&7
  9850  001E9C  AE04               	goto	i2u212_41
  9851  001E9E  EF53  F00F         	goto	i2u212_40
  9852  001EA2  EF55  F00F         i2u212_41:
  9853  001EA6                     	goto	i2l2506
  9854  001EA6  EF48  F00F         i2u212_40:
  9855  001EAA                     	goto	i2l2510
  9856  001EAA  EF59  F00F         	
  9857                           i2l466:
  9858  001EAE                     	goto	i2l2510
  9859  001EAE  EF59  F00F         	line	29
  9860                           	
  9861                           i2l467:
  9862  001EB2                     	line	30
  9863                           	
  9864                           i2l2510:
  9865  001EB2                     	bcf	status,0
  9866  001EB2  90D8               	rlcf	((c:i2___awdiv@quotient)),c
  9867  001EB4  3607               	rlcf	((c:i2___awdiv@quotient+1)),c
  9868  001EB6  3608               	line	31
  9869                           	
  9870                           i2l2512:
  9871  001EB8                     		movf	((c:i2___awdiv@divisor)),c,w
  9872  001EB8  5003               	subwf	((c:i2___awdiv@dividend)),c,w
  9873  001EBA  5C01               	movf	((c:i2___awdiv@divisor+1)),c,w
  9874  001EBC  5004               	subwfb	((c:i2___awdiv@dividend+1)),c,w
  9875  001EBE  5802               	btfss	status,0
  9876  001EC0  A0D8               	goto	i2u213_41
  9877  001EC2  EF65  F00F         	goto	i2u213_40
  9878  001EC6  EF67  F00F         
  9879                           i2u213_41:
  9880  001ECA                     	goto	i2l2518
  9881  001ECA  EF6E  F00F         i2u213_40:
  9882  001ECE                     	line	32
  9883                           	
  9884                           i2l2514:
  9885  001ECE                     	movf	((c:i2___awdiv@divisor)),c,w
  9886  001ECE  5003               	subwf	((c:i2___awdiv@dividend)),c
  9887  001ED0  5E01               	movf	((c:i2___awdiv@divisor+1)),c,w
  9888  001ED2  5004               	subwfb	((c:i2___awdiv@dividend+1)),c
  9889  001ED4  5A02               
  9890                           	line	33
  9891                           	
  9892                           i2l2516:
  9893  001ED6                     	bsf	(0+(0/8)+(c:i2___awdiv@quotient)),c,(0)&7
  9894  001ED6  8007               	goto	i2l2518
  9895  001ED8  EF6E  F00F         	line	34
  9896                           	
  9897                           i2l468:
  9898  001EDC                     	line	35
  9899                           	
  9900                           i2l2518:
  9901  001EDC                     	bcf	status,0
  9902  001EDC  90D8               	rrcf	((c:i2___awdiv@divisor+1)),c
  9903  001EDE  3204               	rrcf	((c:i2___awdiv@divisor)),c
  9904  001EE0  3203               	line	36
  9905                           	
  9906                           i2l2520:
  9907  001EE2                     	decfsz	((c:i2___awdiv@counter)),c
  9908  001EE2  2E05               	
  9909                           	goto	i2l2510
  9910  001EE4  EF59  F00F         	goto	i2l2522
  9911  001EE8  EF78  F00F         	
  9912                           i2l469:
  9913  001EEC                     	goto	i2l2522
  9914  001EEC  EF78  F00F         	line	37
  9915                           	
  9916                           i2l463:
  9917  001EF0                     	line	38
  9918                           	
  9919                           i2l2522:
  9920  001EF0                     	movf	((c:i2___awdiv@sign)),c,w
  9921  001EF0  5006               	btfsc	status,2
  9922  001EF2  B4D8               	goto	i2u214_41
  9923  001EF4  EF7E  F00F         	goto	i2u214_40
  9924  001EF8  EF80  F00F         i2u214_41:
  9925  001EFC                     	goto	i2l2526
  9926  001EFC  EF86  F00F         i2u214_40:
  9927  001F00                     	line	39
  9928                           	
  9929                           i2l2524:
  9930  001F00                     	negf	((c:i2___awdiv@quotient)),c
  9931  001F00  6C07               	comf	((c:i2___awdiv@quotient+1)),c
  9932  001F02  1E08               	btfsc	status,0
  9933  001F04  B0D8               	incf	((c:i2___awdiv@quotient+1)),c
  9934  001F06  2A08               	goto	i2l2526
  9935  001F08  EF86  F00F         	
  9936                           i2l470:
  9937  001F0C                     	line	40
  9938                           	
  9939                           i2l2526:
  9940  001F0C                     	movff	(c:i2___awdiv@quotient),(c:?i2___awdiv)
  9941  001F0C  C007  F001         	movff	(c:i2___awdiv@quotient+1),(c:?i2___awdiv+1)
  9942  001F10  C008  F002         	goto	i2l471
  9943  001F14  EF8C  F00F         	
  9944                           i2l2528:
  9945  001F18                     	line	41
  9946                           	
  9947                           i2l471:
  9948  001F18                     	return	;funcret
  9949  001F18  0012               	opt stack 0
  9950                           GLOBAL	__end_ofi2___awdiv
  9951                           	__end_ofi2___awdiv:
  9952  001F1A                     	signat	i2___awdiv,90
  9953                           	global	i2_UART_Write
  9954                           
  9955 ;; *************** function i2_UART_Write *****************
  9956 ;; Defined at:
  9957 ;;		line 390 in file "Problem3.c"
  9958 ;; Parameters:    Size  Location     Type
  9959 ;;  data            1    wreg     unsigned char 
  9960 ;; Auto vars:     Size  Location     Type
  9961 ;;  data            1    0[COMRAM] unsigned char 
  9962 ;; Return value:  Size  Location     Type
  9963 ;;                  1    wreg      void 
  9964 ;; Registers used:
  9965 ;;		wreg
  9966 ;; Tracked objects:
  9967 ;;		On entry : 0/0
  9968 ;;		On exit  : 0/0
  9969 ;;		Unchanged: 0/0
  9970 ;; Data sizes:     COMRAM   BANK0   BANK1   BANK2   BANK3   BANK4   BANK5
  9971 ;;      Params:         0       0       0       0       0       0       0
  9972 ;;      Locals:         1       0       0       0       0       0       0
  9973 ;;      Temps:          0       0       0       0       0       0       0
  9974 ;;      Totals:         1       0       0       0       0       0       0
  9975 ;;Total ram usage:        1 bytes
  9976 ;; Hardware stack levels used:    1
  9977 ;; This function calls:
  9978 ;;		Nothing
  9979 ;; This function is called by:
  9980 ;;		i2_PrintVoltage
  9981 ;; This function uses a non-reentrant model
  9982 ;;
  9983                           psect	text38,class=CODE,space=0,reloc=2,group=0
  9984                           	file	"Problem3.c"
  9985                           	line	390
  9986                           global __ptext38
  9987                           __ptext38:
  9988  0026AA                     psect	text38
  9989                           	file	"Problem3.c"
  9990                           	line	390
  9991                           	global	__size_ofi2_UART_Write
  9992                           	__size_ofi2_UART_Write	equ	__end_ofi2_UART_Write-i2_UART_Write
  9993  0000                     	
  9994                           i2_UART_Write:
  9995  0026AA                     ;incstack = 0
  9996                           	opt	stack 22
  9997                           ;i2UART_Write@data stored from wreg
  9998                           	movwf	((c:i2UART_Write@data)),c
  9999  0026AA  6E01               	line	392
 10000                           	
 10001                           i2l2476:
 10002  0026AC                     ;Problem3.c: 390: void UART_Write(unsigned char data);Problem3.c: 391: {;Problem3.c: 392
                                 :     while(!TXSTAbits.TRMT);
 10003                           	goto	i2l198
 10004  0026AC  EF58  F013         	
 10005                           i2l199:
 10006  0026B0                     	
 10007                           i2l198:
 10008  0026B0                     	btfss	((c:4012)),c,1	;volatile
 10009  0026B0  A2AC               	goto	i2u208_41
 10010  0026B2  EF5D  F013         	goto	i2u208_40
 10011  0026B6  EF5F  F013         i2u208_41:
 10012  0026BA                     	goto	i2l198
 10013  0026BA  EF58  F013         i2u208_40:
 10014  0026BE                     	goto	i2l2478
 10015  0026BE  EF61  F013         	
 10016                           i2l200:
 10017  0026C2                     	line	393
 10018                           	
 10019                           i2l2478:
 10020  0026C2                     ;Problem3.c: 393:     TXREG = data;
 10021                           	movff	(c:i2UART_Write@data),(c:4013)	;volatile
 10022  0026C2  C001  FFAD         	line	394
 10023                           	
 10024                           i2l201:
 10025  0026C6                     	return	;funcret
 10026  0026C6  0012               	opt stack 0
 10027                           GLOBAL	__end_ofi2_UART_Write
 10028                           	__end_ofi2_UART_Write:
 10029  0026C8                     	signat	i2_UART_Write,89
 10030                           psect	smallconst
 10031                           	db 0	; dummy byte at the end
 10032  000622  00                 	global	__smallconst
 10033                           	global	__mediumconst
 10034                           	GLOBAL	__activetblptr
 10035                           __activetblptr	EQU	1
 10036  0000                     	psect	intsave_regs,class=BIGRAM,space=1,noexec
 10037                           	PSECT	rparam,class=COMRAM,space=1,noexec
 10038                           	GLOBAL	__Lrparam
 10039                           	FNCONF	rparam,??,?
 10040                           	GLOBAL	___rparam_used
 10041                           	___rparam_used EQU 1
 10042  0000                     	GLOBAL	___param_bank
 10043                           	___param_bank EQU 0
 10044  0000                     GLOBAL	__Lparam, __Hparam
 10045                           GLOBAL	__Lrparam, __Hrparam
 10046                           __Lparam	EQU	__Lrparam
 10047  0000                     __Hparam	EQU	__Hrparam
 10048  0000                            psect   temp,common,ovrld,class=COMRAM,space=1
 10049                           	global	btemp
 10050                           btemp:
 10051  000053                     	ds	1
 10052  000053                     	global	int$flags
 10053                           	int$flags	set btemp
 10054  0000                     	global	wtemp8
 10055                           	wtemp8 set btemp+1
 10056  0000                     	global	ttemp5
 10057                           	ttemp5 set btemp+1
 10058  0000                     	global	ttemp6
 10059                           	ttemp6 set btemp+4
 10060  0000                     	global	ttemp7
 10061                           	ttemp7 set btemp+8
 10062  0000                     	end


Data Sizes:
    Strings     33
    Constant    0
    Data        0
    BSS         28
    Persistent  0
    Stack       0

Auto Spaces:
    Space          Size  Autos    Used
    COMRAM          126     68      82
    BANK0           128     71      85
    BANK1           256      0       0
    BANK2           256      0       0
    BANK3           256      0       0
    BANK4           256      0       0
    BANK5           256      0       0

Pointer List with Targets:

    strncmp@_r	PTR const unsigned char  size(2) Largest target is 6
		 -> STR_6(CODE[2]), STR_5(CODE[5]), STR_4(CODE[6]), STR_3(CODE[6]), 
		 -> STR_2(CODE[2]), 

    strncmp@r	PTR const unsigned char  size(2) Largest target is 6
		 -> STR_6(CODE[2]), STR_5(CODE[5]), STR_4(CODE[6]), STR_3(CODE[6]), 
		 -> STR_2(CODE[2]), 

    strncmp@_l	PTR const unsigned char  size(2) Largest target is 10
		 -> NULL(NULL[0]), mystring(BANK0[10]), 

    strncmp@l	PTR const unsigned char  size(2) Largest target is 10
		 -> NULL(NULL[0]), mystring(BANK0[10]), 

    strlen@s	PTR const unsigned char  size(2) Largest target is 6
		 -> STR_6(CODE[2]), STR_5(CODE[5]), STR_4(CODE[6]), STR_3(CODE[6]), 
		 -> STR_2(CODE[2]), 

    strlen@a	PTR const unsigned char  size(2) Largest target is 6
		 -> STR_6(CODE[2]), STR_5(CODE[5]), STR_4(CODE[6]), STR_3(CODE[6]), 
		 -> STR_2(CODE[2]), 

    strchr@s	PTR const unsigned char  size(2) Largest target is 10
		 -> NULL(NULL[0]), mystring(BANK0[10]), 

    sp__strchr	PTR unsigned char  size(2) Largest target is 10
		 -> NULL(NULL[0]), mystring(BANK0[10]), 

    strstr@h	PTR const unsigned char  size(2) Largest target is 10
		 -> NULL(NULL[0]), mystring(BANK0[10]), 

    strstr@n	PTR const unsigned char  size(2) Largest target is 6
		 -> STR_6(CODE[2]), STR_5(CODE[5]), STR_4(CODE[6]), STR_3(CODE[6]), 
		 -> STR_2(CODE[2]), 

    sp__strstr	PTR unsigned char  size(2) Largest target is 10
		 -> NULL(NULL[0]), mystring(BANK0[10]), 


Critical Paths under _main in COMRAM

    None.

Critical Paths under _Lo_ISR in COMRAM

    None.

Critical Paths under _Hi_ISR in COMRAM

    _Hi_ISR->i2_PrintVoltage
    i2_strstr->i2_strncmp
    i2_PrintVoltage->i2___fltol
    i2___wmul->i2___awdiv
    i2___fltol->i2___flmul
    i2___flmul->i2___xxtofl

Critical Paths under _main in BANK0

    _main->_Mode3
    _strstr->_strncmp
    _Mode3->_PrintVoltage
    _PrintVoltage->___fltol
    ___wmul->___awdiv
    ___fltol->___flmul
    ___flmul->___xxtofl
    _Mode2_1->_ClearBuffer

Critical Paths under _Lo_ISR in BANK0

    _MyusartRead->___awmod

Critical Paths under _Hi_ISR in BANK0

    None.

Critical Paths under _main in BANK1

    None.

Critical Paths under _Lo_ISR in BANK1

    None.

Critical Paths under _Hi_ISR in BANK1

    None.

Critical Paths under _main in BANK2

    None.

Critical Paths under _Lo_ISR in BANK2

    None.

Critical Paths under _Hi_ISR in BANK2

    None.

Critical Paths under _main in BANK3

    None.

Critical Paths under _Lo_ISR in BANK3

    None.

Critical Paths under _Hi_ISR in BANK3

    None.

Critical Paths under _main in BANK4

    None.

Critical Paths under _Lo_ISR in BANK4

    None.

Critical Paths under _Hi_ISR in BANK4

    None.

Critical Paths under _main in BANK5

    None.

Critical Paths under _Lo_ISR in BANK5

    None.

Critical Paths under _Hi_ISR in BANK5

    None.

Call Graph Tables:

 ---------------------------------------------------------------------------------
 (Depth) Function   	        Calls       Base Space   Used Autos Params    Refs
 ---------------------------------------------------------------------------------
 (0) _main                                                 0     0      0    7718
                        _ClearBuffer
               _INTERRUPT_Initialize
                           _LED_Init
                            _Mode2_1
                              _Mode3
                    _UART_Initialize
                             _strstr
 ---------------------------------------------------------------------------------
 (1) _strstr                                               6     2      4    1789
                                             24 BANK0      6     2      4
                             _strchr
                             _strlen
                            _strncmp
 ---------------------------------------------------------------------------------
 (2) _strncmp                                             13     7      6     453
                                             11 BANK0     13     7      6
 ---------------------------------------------------------------------------------
 (2) _strlen                                               6     4      2     166
                                             11 BANK0      6     4      2
 ---------------------------------------------------------------------------------
 (2) _strchr                                               5     1      4     240
                                             11 BANK0      5     1      4
 ---------------------------------------------------------------------------------
 (1) _UART_Initialize                                      0     0      0       0
 ---------------------------------------------------------------------------------
 (1) _Mode3                                                2     2      0    5793
                                             69 BANK0      2     2      0
                           _ADC_Read
                        _ClearBuffer
                       _PrintVoltage
                         _UART_Write
                       _adc_init_2_2
 ---------------------------------------------------------------------------------
 (2) _adc_init_2_2                                         0     0      0       0
 ---------------------------------------------------------------------------------
 (2) _PrintVoltage                                         9     7      2    5483
                                             60 BANK0      9     7      2
                         _UART_Write
                            ___awdiv
                            ___flmul
                            ___fltol
                             ___wmul
                           ___xxtofl
 ---------------------------------------------------------------------------------
 (3) ___xxtofl                                            14    10      4     398
                                             11 BANK0     14    10      4
 ---------------------------------------------------------------------------------
 (3) ___wmul                                               6     2      4     615
                                             19 BANK0      6     2      4
                            ___awdiv (ARG)
 ---------------------------------------------------------------------------------
 (3) ___fltol                                             10     6      4     305
                                             50 BANK0     10     6      4
                            ___flmul (ARG)
 ---------------------------------------------------------------------------------
 (3) ___flmul                                             25    17      8    1896
                                             25 BANK0     25    17      8
                           ___xxtofl (ARG)
 ---------------------------------------------------------------------------------
 (3) ___awdiv                                              8     4      4    1616
                                             11 BANK0      8     4      4
 ---------------------------------------------------------------------------------
 (2) _UART_Write                                           1     1      0      22
                                             11 BANK0      1     1      0
 ---------------------------------------------------------------------------------
 (2) _ADC_Read                                             6     4      2     197
                                             11 BANK0      6     4      2
 ---------------------------------------------------------------------------------
 (1) _Mode2_1                                              0     0      0      68
                        _ClearBuffer
                       _adc_init_2_1
                          _ccp2_init
                           _tmr_init
 ---------------------------------------------------------------------------------
 (2) _tmr_init                                             0     0      0       0
 ---------------------------------------------------------------------------------
 (2) _ccp2_init                                            0     0      0       0
 ---------------------------------------------------------------------------------
 (2) _adc_init_2_1                                         0     0      0       0
 ---------------------------------------------------------------------------------
 (2) _ClearBuffer                                          2     2      0      68
                                             11 BANK0      2     2      0
 ---------------------------------------------------------------------------------
 (1) _LED_Init                                             0     0      0       0
 ---------------------------------------------------------------------------------
 (1) _INTERRUPT_Initialize                                 0     0      0       0
 ---------------------------------------------------------------------------------
 Estimated maximum stack depth 3
 ---------------------------------------------------------------------------------
 (Depth) Function   	        Calls       Base Space   Used Autos Params    Refs
 ---------------------------------------------------------------------------------
 (4) _Lo_ISR                                               5     5      0     470
                                              6 BANK0      5     5      0
                        _MyusartRead
 ---------------------------------------------------------------------------------
 (5) _MyusartRead                                          0     0      0     470
                            ___awmod
                       i1_UART_Write
 ---------------------------------------------------------------------------------
 (6) i1_UART_Write                                         1     1      0      22
                                              0 BANK0      1     1      0
 ---------------------------------------------------------------------------------
 (6) ___awmod                                              6     2      4     448
                                              0 BANK0      6     2      4
 ---------------------------------------------------------------------------------
 Estimated maximum stack depth 6
 ---------------------------------------------------------------------------------
 (Depth) Function   	        Calls       Base Space   Used Autos Params    Refs
 ---------------------------------------------------------------------------------
 (7) _Hi_ISR                                              10    10      0    5357
                                             58 COMRAM    10    10      0
                     i2_PrintVoltage
                          i2___awdiv
                           i2_strstr
 ---------------------------------------------------------------------------------
 (8) i2_strstr                                             6     2      4     833
                                             13 COMRAM     6     2      4
                           i2_strchr
                           i2_strlen
                          i2_strncmp
 ---------------------------------------------------------------------------------
 (9) i2_strncmp                                           13     7      6     303
                                              0 COMRAM    13     7      6
 ---------------------------------------------------------------------------------
 (9) i2_strlen                                             6     4      2     116
                                              0 COMRAM     6     4      2
 ---------------------------------------------------------------------------------
 (9) i2_strchr                                             5     1      4     140
                                              0 COMRAM     5     1      4
 ---------------------------------------------------------------------------------
 (8) i2_PrintVoltage                                       9     7      2    3733
                                             49 COMRAM     9     7      2
                       i2_UART_Write
                          i2___awdiv
                          i2___flmul
                          i2___fltol
                           i2___wmul
                         i2___xxtofl
 ---------------------------------------------------------------------------------
 (9) i2___xxtofl                                          14    10      4     348
                                              0 COMRAM    14    10      4
 ---------------------------------------------------------------------------------
 (9) i2___wmul                                             6     2      4     315
                                              8 COMRAM     6     2      4
                          i2___awdiv (ARG)
 ---------------------------------------------------------------------------------
 (9) i2___fltol                                           10     6      4     255
                                             39 COMRAM    10     6      4
                          i2___flmul (ARG)
 ---------------------------------------------------------------------------------
 (9) i2___flmul                                           25    17      8    1570
                                             14 COMRAM    25    17      8
                         i2___xxtofl (ARG)
 ---------------------------------------------------------------------------------
 (8) i2___awdiv                                            8     4      4     768
                                              0 COMRAM     8     4      4
 ---------------------------------------------------------------------------------
 (9) i2_UART_Write                                         1     1      0      22
                                              0 COMRAM     1     1      0
 ---------------------------------------------------------------------------------
 Estimated maximum stack depth 9
 ---------------------------------------------------------------------------------

 Call Graph Graphs:

 _main (ROOT)
   _ClearBuffer
   _INTERRUPT_Initialize
   _LED_Init
   _Mode2_1
     _ClearBuffer
     _adc_init_2_1
     _ccp2_init
     _tmr_init
   _Mode3
     _ADC_Read
     _ClearBuffer
     _PrintVoltage
       _UART_Write
       ___awdiv
       ___flmul
         ___xxtofl (ARG)
       ___fltol
         ___flmul (ARG)
           ___xxtofl (ARG)
       ___wmul
         ___awdiv (ARG)
       ___xxtofl
     _UART_Write
     _adc_init_2_2
   _UART_Initialize
   _strstr
     _strchr
     _strlen
     _strncmp

 _Lo_ISR (ROOT)
   _MyusartRead
     ___awmod
     i1_UART_Write

 _Hi_ISR (ROOT)
   i2_PrintVoltage
     i2_UART_Write
     i2___awdiv
     i2___flmul
       i2___xxtofl (ARG)
     i2___fltol
       i2___flmul (ARG)
         i2___xxtofl (ARG)
     i2___wmul
       i2___awdiv (ARG)
     i2___xxtofl
   i2___awdiv
   i2_strstr
     i2_strchr
     i2_strlen
     i2_strncmp

 Address spaces:
Name               Size   Autos  Total    Cost      Usage
BIGRAM             5FF      0       0      17        0.0%
EEDATA             100      0       0       0        0.0%
BITBANK5           100      0       0      16        0.0%
BANK5              100      0       0      14        0.0%
BITBANK4           100      0       0      12        0.0%
BANK4              100      0       0      13        0.0%
BITBANK3           100      0       0      10        0.0%
BANK3              100      0       0      11        0.0%
BITBANK2           100      0       0       8        0.0%
BANK2              100      0       0       9        0.0%
BITBANK1           100      0       0       6        0.0%
BANK1              100      0       0       7        0.0%
BITBANK0            80      0       0       4        0.0%
BANK0               80     47      55       5       66.4%
BITCOMRAM           7E      0       0       0        0.0%
COMRAM              7E     44      52       1       65.1%
BITSFR               0      0       0     200        0.0%
SFR                  0      0       0     200        0.0%
STACK                0      0       0       2        0.0%
NULL                 0      0       0       0        0.0%
ABS                  0      0      A7      15        0.0%
DATA                 0      0      A7       3        0.0%
CODE                 0      0       0       0        0.0%


Microchip Technology PIC18 Macro Assembler V2.00 build -1524193055 
Symbol Table                                                                                   Fri Dec 21 20:39:17 2018

                 ___awdiv@sign 0090                             bsr 000FE0            ___wmul@multiplicand 0095  
                  __CFG_BORV$3 000000                   __CFG_CP0$OFF 000000                   __CFG_CP1$OFF 000000  
                 __CFG_CP2$OFF 000000                   __CFG_CP3$OFF 000000                            l200 2684  
                          l201 2688                            l210 228E                            l211 22C2  
                          l212 22CA                            l220 245C                            l221 2480  
                          l240 25CC                            l160 225C                            l138 2646  
                          l218 244A                            l154 21BE                            l219 244A  
                          l163 10B2                            l155 21F0                            l180 253A  
                          l164 1172                            l156 2222                            l237 2504  
                          l165 1158                            l149 25A0                            l157 2254  
                          l166 116E                            l158 2258                            l167 1180  
                          l183 256E                            l159 225C                            l192 26F6  
                          l186 26DC                            l195 2668                            l540 1844  
                          l189 26EE                            l461 1D64                            l541 1858  
                          l198 2672                            l470 1E20                            l462 1D82  
                          l542 18B0                            l199 2672                            l471 1E2C  
                          l463 1E04                            l543 1884                            l464 1DB0  
                          l544 1898                            l536 17C6                            l465 1DA4  
                          l545 1888                            l537 18E8                            l466 1DC2  
                          l546 18AC                            l538 185C                            l467 1DC6  
                          l547 18D4                            l539 1840                            l468 1DF0  
                          l900 147E                            l469 1E00                            l901 14C0  
                          l910 1558                            l902 14DC                            l911 15A4  
                          l903 14C4                            l904 150E                            l920 1FEA  
                          l905 1522                            l921 1FB2                            l850 0694  
                          l906 1512                            l930 2326                            l922 1F46  
                          l851 06B4                            l931 2352                            l923 1F86  
                          l860 08E2                            l852 06EE                            l908 1544  
                          l932 237E                            l924 1FF6                            l861 08FC  
                          l853 06E8                            l909 1544                            l933 2372  
                          l870 0A7A                            l862 0922                            l854 06FE  
                          l942 1B82                            l926 1FE2                            l871 0A44  
                          l863 0984                            l855 073A                            l847 0646  
                          l943 1C42                            l927 1FE6                            l872 0A76  
                          l864 096A                            l848 0680                            l936 22E2  
                          l944 1B98                            l873 0A6C                            l865 0984  
                          l857 0722                            l849 067A                            l937 22D8  
                          l945 1B86                            l866 0980                            l858 0A92  
                          l938 2302                            l867 09E4                            l859 0910  
                          l939 2324                            l947 1C0A                            l868 09E0  
                          l948 1C0E                            l869 0A12                            l895 1434  
                          l896 1448                            l897 1476                            l898 15B8  
                          l899 148E                   __CFG_CPB$OFF 000000                            _PR2 000FCB  
                 __CFG_CPD$OFF 000000                            _sum 004F                            _str 0045  
                 ___awmod@sign 0085                     i2___xxtofl 15BA                            wreg 000FE8  
                  i2___flmul@a 0013                    i2___flmul@b 000F                   __CFG_IESO$ON 000000  
                 ___flmul@aexp 00AA                   ___flmul@bexp 00AB                   ___flmul@sign 00A5  
                 ___flmul@temp 00B0                   ___flmul@prod 00AC                    _Hi_ISR$1820 0043  
                 __CFG_LVP$OFF 000000                   ___fltol@exp1 00BB                   __CFG_WDT$OFF 000000  
                         l2100 0880                           l2020 25C0                           l2014 266E  
                         l2110 08FA                           l2102 08B6                           l2030 0646  
                         l2022 25CC                           l2016 2684                           l2120 0962  
                         l2112 0910                           l2104 08C4                           l2040 0694  
                         l2032 0656                           l2024 0624                           l2200 17AE  
                         l3000 21AE                           l2130 09D8                           l2122 0978  
                         l2114 0922                           l2106 08E2                           l2050 06C4  
                         l2042 069A                           l2034 0666                           l2026 0632  
                         l2210 1802                           l2202 17C2                           l2018 25A2  
                         l3010 21F0                           l3002 21B2                           l2300 22C2  
                         l2140 0A48                           l2124 0994                           l2132 09E4  
                         l2116 0926                           l2108 08EC                           l2060 0722  
                         l2052 06D4                           l2044 06A0                           l2036 067A  
                         l2028 0640                           l2220 1844                           l2212 1806  
                         l2204 17C6                           l3012 221A                           l3004 21B6  
                         l2310 252E                           l2302 2506                           l2150 0A7E  
                         l2142 0A58                           l2134 09FE                           l2126 09A0  
                         l2118 0934                           l2070 0766                           l2062 0736  
                         l2054 06E8                           l2046 06AE                           l2038 0680  
                         l2230 1888                           l2222 184E                           l2214 1814  
                         l2206 17F0                           l3014 2222                           l3006 21BE  
                         l2320 2538                           l2312 2530                           l2304 2512  
                         l2160 1D5C                           l2152 0A92                           l2144 0A66  
                         l2136 0A12                           l2128 09AE                           l2080 07B0  
                         l2072 0772                           l2064 073A                           l2056 06EE  
                         l2048 06B4                           l2240 18E8                           l2232 1898  
                         l2216 1828                           l2224 185C                           l2208 17F2  
                         l3016 224C                           l3008 21E8                           l2314 2532  
                         l2306 251A                           l2322 26C8                           l2170 1D8A  
                         l2162 1D64                           l2154 1D40                           l2146 0A6C  
                         l2138 0A2C                           l2090 0802                           l2082 07BC  
                         l2074 078A                           l2066 0746                           l2058 070E  
                         l2226 186C                           l2234 18B0                           l2218 183C  
                         l2250 145E                           l2242 13DE                           l2330 253C  
                         l2316 2534                           l2308 251C                           l2324 26D4  
                         l2180 1DCC                           l2172 1D9C                           l2164 1D72  
                         l2156 1D46                           l2148 0A7A                           l2092 0812  
                         l2084 07CC                           l2076 0796                           l2068 0750  
                         l2236 18C0                           l2228 1880                           l2260 14C4  
                         l2252 1472                           l2244 13F0                           l2340 256C  
                         l2332 2548                           l2318 2536                           l2326 26DE  
                         l2350 2474                           l2342 242E                           l2182 1DE2  
                         l2174 1DA4                           l2190 1E04                           l2166 1D7A  
                         l2158 1D54                           l2094 082E                           l2086 07D8  
                         l2078 07A2                           l2238 18D4                           l2270 1530  
                         l2262 14C6                           l2254 1476                           l2246 13FE  
                         l2334 2550                           l2430 22CC                           l2328 26E6  
                         l2352 2480                           l2344 2442                           l2192 1E14  
                         l2184 1DEA                           l2176 1DB0                           l2168 1D82  
                         l2096 083A                           l2088 07E8                           l2280 1590  
                         l2272 1552                           l2264 14D2                           l2256 147E  
                         l2248 1448                           l2360 0FAA                           l2336 2552  
                         l2432 22D8                           l2440 1B46                           l2290 226A  
                         l2346 2444                           l2194 1E20                           l2186 1DF0  
                         l2178 1DC6                           l2098 0856                           l2282 159E  
                         l2274 1558                           l2266 1512                           l2258 148E  
                         l2370 1044                           l2362 0FB0                           l2354 0F02  
                         l2338 2554                           l2434 22E2                           l2450 1BB0  
                         l2442 1B72                           l2292 228A                           l2348 245C  
                         l2196 1E2C                           l2188 1DF6                           l2284 15A4  
                         l2276 155C                           l2268 1522                           l2380 10E4  
                         l2372 104A                           l2364 0FE2                           l2356 0F14  
                         l2460 2326                           l2436 2302                           l2452 1BCC  
                         l2444 1B7E                           l2294 228E                           l2198 1796  
                         l2286 15B8                           l2278 1580                           l2382 10F0  
                         l2390 1172                           l2374 1068                           l2366 0FFE  
                         l2358 0F62                           l2470 237E                           l2462 2342  
                         l2438 2324                           l2454 1BDE                           l2446 1B86  
                         l2296 229E                           l2288 2260                           l2800 263A  
                         l2392 117A                           l2384 110E                           l2376 10A8  
                         l2368 103E                           l2464 234E                           l2456 1C0E  
                         l2448 1B98                           l2298 22A2                           l2802 263E  
                         l2386 114E                           l2378 10B2                           l2466 2352  
                         l2458 1C42                           l2810 1F46                           l2804 2642  
                         l2388 1158                           l2468 2372                           l2820 1FC6  
                         l2812 1F76                           l2830 2578                           l2814 1F82  
                         l2822 1FEA                           l2806 1F1A                           l2832 258E  
                         l2840 2652                           l2824 1FF6                           l2816 1F86  
                         l2808 1F2E                           l2834 259A                           l2826 2570  
                         l2850 265E                           l2842 2656                           l2818 1FB2  
                         l2836 26F0                           l2860 24CE                           l2828 2574  
                         l2852 2660                           l2844 2658                           l2870 24E6  
                         l2862 24D0                           l2854 2662                           l2846 265A  
                         l2838 2648                           l2880 24F0                           l2872 24E8  
                         l2864 24D8                           l2792 2622                           l2856 2664  
                         l2848 265C                           l2890 2502                           l2882 24F2  
                         l2874 24EA                           l2866 24DA                           l2794 2626  
                         l2858 2666                           l2884 24F4                           l2876 24EC  
                         l2868 24E4                           l2796 262A                           l2886 24FE  
                         l2878 24EE                           l2798 2632                           l2888 2500  
                         l2998 21AA                           _ADFM 007E07                           _ADIP 007CFE  
                         STR_1 0601                           STR_2 0620                           STR_3 060F  
                         STR_4 0615                           STR_5 061B                           STR_6 0620  
                         _CREN 007D5C                           u2000 1B72                           u2001 1B6E  
                         u2010 1BB0                           u2011 1BAC                           u2020 1BCC  
                         u2021 1BC8                           u2030 1BDE                           u2031 1BDA  
                         u2040 1C06                           u2041 1C02                           u2050 2342  
                         u2051 233E                           u1500 06C4                           u2060 236E  
                         u1501 06C0                           u2061 236A                           u1510 06D4  
                         u1511 06D0                           u1600 0994                           u1520 070E  
                         u1601 0990                           u1521 070A                           u1450 2680  
                         u1610 09AE                           u1530 071E                           u1451 267C  
                         u1611 09AA                           u1531 071A                           u1700 1E14  
                         u1620 09FE                           u1540 08A0                           u1460 0640  
                         u1701 1E10                           u1621 09FA                           u1461 063C  
                         u1630 0A2C                           u1550 08FA                           u1470 0656  
                         u1710 17AE                           u1631 0A28                           u1551 08F6  
                         u1471 0652                           u1711 17AA                           u1640 0A66  
                         u1560 091E                           u1480 0666                           u1720 17E6  
                         u1800 145E                           u2600 1F76                           u1641 0A62  
                         u1561 091A                           u1545 0896                           u1481 0662  
                         u1801 145A                           u2601 1F72                           u1650 1D54  
                         u1570 0934                           u1490 06AE                           u1730 1814  
                         u1810 14BC                           u2610 1FC6                           u1651 1D50  
                         u1571 0930                           u1491 06AA                           u1731 1810  
                         u1811 14B8                           u2611 1FC2                           u1900 2458  
                         u1660 1D72                           u1580 0962                           u1740 1828  
                         u1820 150A                           u2620 1FDE                           u1901 2454  
                         u1661 1D6E                           u1581 095E                           u1741 1824  
                         u1725 17DC                           u1821 1506                           u2621 1FDA  
                         u1670 1D9C                           u1590 0978                           u1750 186C  
                         u1830 1530                           u1910 0FE2                           u1671 1D98  
                         u1591 0974                           u1751 1868                           u1831 152C  
                         u1911 0FDE                           u1680 1DBE                           u1760 18A8  
                         u1840 1540                           u1920 10E4                           _IPEN 007E87  
                         u1681 1DBA                           u1761 18A4                           u1841 153C  
                         u1921 10E0                           u1690 1DE2                           u1770 18C0  
                         u1850 1552                           u2730 21E8                           u1691 1DDE  
                         u1771 18BC                           u1851 154E                           u2731 21E4  
                         u1860 1590                           u1780 13F0                           u2740 221A  
                         u1861 158C                           u1781 13EC                           u2741 2216  
                         u1870 159E                           u1790 13FE                           u2590 1F2E  
                         u2750 224C                           u1871 159A                           u1791 13FA  
                         u2591 1F2A                           u2751 2248                           u1880 2286  
                         u1881 2282                           u1890 22BE                           u1891 22BA  
                         u1990 22FE                           u1991 22FA                           _RCIF 007CF5  
        __size_of_adc_init_2_1 0036          __size_of_adc_init_2_2 0034                           _TMR1 000FCE  
                         _TMR2 000FCC                   __CFG_WDTPS$1 000000                           _main 21AA  
                         _mode 00C7                           fsr2h 000FDA                           indf2 000FDF  
                         fsr2l 000FD9                           btemp 0053               __end_of_ADC_Read 2482  
                         prodh 000FF4                           prodl 000FF3                           start 0124  
                 i2___fltol@f1 0028                  __CFG_MCLRE$ON 000000                   ___param_bank 000000  
              __end_of_Mode2_1 2648               ?_UART_Initialize 0001               __end_of_LED_Init 2506  
                ___fltol@sign1 00BA                          ?_main 0001                 i2_PrintVoltage 1182  
              __end_of___awdiv 1E2E                          _ADRES 000FC3                   Mode3@digital 00C5  
                        _CCPR2 000FBB                __end_of___awmod 20D2                __end_of___flmul 0A94  
              __end_of___fltol 18EA                ___awdiv@divisor 008D                          _T2CON 000FCA  
                        i1l200 26A4                          i1l201 26A8                          i1l230 00B2  
                        i1l215 24CC                          i1l231 00FC                          i1l232 00FC  
                        i1l233 00F8                          i1l234 010C                          i1l226 005C  
                        i1l227 0054                          i1l228 0108                          i1l229 00B6  
                        i2l200 26C2                          i2l201 26C6                          i1l198 2692  
                        i1l199 2692                          i2l240 2620                          i1l480 2072  
                        i1l481 2094                          i1l482 20A4                          i1l474 201C  
                        i2l163 1318                          i1l483 20C4                          i1l475 2036  
                        i2l164 13CC                          i2l172 1AFE                          i1l484 20D0  
                        i1l476 20A8                          i2l165 13B2                          i2l173 1A9E  
                        i1l477 205C                          i2l166 13C8                          i2l174 1AFA  
                        i1l478 2050                          i2l167 13D8                          i2l175 1B1E  
                        i1l479 206E                          i2l176 1B1A                          i2l177 1B22  
                        i2l540 1996                          i2l461 1E50                          i2l541 19AA  
                        i2l198 26B0                          i2l470 1F0C                          i2l462 1E6E  
                        i2l542 1A02                          i2l199 26B0                          i2l471 1F18  
                        i2l463 1EF0                          i2l543 19D6                          i2l464 1E9C  
                        i2l544 19EA                          i2l536 1918                          i2l465 1E90  
                        i2l545 19DA                          i2l537 1A3A                          i2l466 1EAE  
                        i2l546 19FE                          i2l538 19AE                          i2l467 1EB2  
                        i2l547 1A26                          i2l539 1992                          i2l468 1EDC  
                        i2l900 165A                          i2l469 1EEC                          i2l901 169C  
                        i2l910 1734                          i2l902 16B8                          i2l911 1780  
                        i2l903 16A0                          i2l904 16EA                          i2l920 219C  
                        i2l905 16FE                          i2l921 2166                          i2l850 0B02  
                        i2l906 16EE                          i2l930 2380                          i2l922 20FC  
                        i2l851 0B22                          i2l931 23AA                          i2l923 213A  
                        i2l860 0D50                          i2l852 0B5C                          i2l908 1720  
                        i2l932 23D6                          i2l924 21A8                          i2l861 0D6A  
                        i2l853 0B56                          i2l909 1720                          i2l933 23CA  
                        i2l870 0EE8                          i2l862 0D90                          i2l854 0B6C  
                        i2l942 1C7E                          i2l926 2194                          i2l871 0EB2  
                        i2l863 0DF2                          i2l855 0BA8                          i2l847 0AB4  
                        i2l943 1D3E                          i2l927 2198                          i2l872 0EE4  
                        i2l864 0DD8                          i2l848 0AEE                          i2l936 23EC  
                        i2l944 1C94                          i2l873 0EDA                          i2l865 0DF2  
                        i2l857 0B90                          i2l849 0AE8                          i2l937 23E4  
                        i2l945 1C82                          i2l866 0DEE                          i2l858 0F00  
                        i2l938 240C                          i2l867 0E52                          i2l859 0D7E  
                        i2l939 242C                          i2l947 1D06                          i2l868 0E4E  
                        i2l948 1D0A                ___awdiv@counter 008F                          i2l869 0E80  
                        i2l895 1610                          i2l896 1624                          i2l897 1652  
                        i2l898 1794                          i2l899 166A                          _RCREG 000FAE  
                        _SPBRG 000FAF                          _TRISA 000F92                          _TRISD 000F95  
                        _TXREG 000FAD                   _adc_init_2_1 2506                   _adc_init_2_2 253C  
                __CFG_PWRT$OFF 000000                  __CFG_WRT0$OFF 000000                  __CFG_WRT1$OFF 000000  
                __CFG_WRT2$OFF 000000                  __CFG_WRT3$OFF 000000                          _Mode3 2570  
               __CFG_EBTR0$OFF 000000                 __CFG_FCMEN$OFF 000000                 __CFG_EBTR1$OFF 000000  
               __CFG_EBTR2$OFF 000000                 __CFG_EBTR3$OFF 000000                    ?_UART_Write 0001  
                __CFG_WRTB$OFF 000000                  __CFG_WRTC$OFF 000000                  __CFG_WRTD$OFF 000000  
               __CFG_EBTRB$OFF 000000                          _count 0051                    _ClearBuffer 2260  
                        tablat 000FF5               __end_ofi2___wmul 2622                          ttemp5 0054  
                        ttemp6 0057                          ttemp7 005B                          status 000FD8  
                        wtemp8 0054                  i2___flmul@grs 001C                __end_of_strncmp 1C44  
           __size_ofi2___awdiv 00EC             __size_ofi2___flmul 046E                 __CFG_PBADEN$ON 000000  
           __size_ofi2___fltol 0152               __end_ofi2_strchr 23D8               __end_ofi2_strlen 242E  
             __end_ofi2_strstr 21AA                __initialization 25CE                   __end_of_main 2260  
       __end_ofi2_PrintVoltage 13DA                         ??_main 00C7                  __activetblptr 000001  
           __size_ofi2_strncmp 00FC                    ?i2___xxtofl 0001                         ?_Mode3 0001  
                   i2strncmp@l 000A                     i2strncmp@n 0005                     i2strncmp@r 000C  
                   i2strstr@nl 0012                         _CCP2M0 007DD0                         _CCP2M1 007DD1  
                       _CCP2M2 007DD2                         _CCP2M3 007DD3                         _CCP2IE 007D00  
                       _CCP2IP 007D10                         _ADRESH 000FC4                         _ADRESL 000FC3  
                       _CCPR1L 000FBE               ___awdiv@dividend 008B                         _T3CCP1 007D8B  
                       _T3CCP2 007D8E                         i1l2400 2014                         i1l2410 2050  
                       i1l2402 201C                         i1l3050 004A                         i1l2420 209A  
                       i1l2412 205C                         i1l2404 202A                         i1l3060 0080  
                       i1l3052 0054                         i1l2414 2072                         i1l2422 20A8  
                       i1l2406 2036                         i1l3070 00D8                         i1l3062 0090  
                       i1l3054 005C                         i1l3046 002E                         i1l2424 20B8  
                       i1l2416 2088                         i1l2408 2048                         i1l3072 00DC  
                       i1l3064 00A6                         i1l3056 006A                         i1l3048 003C  
                       i1l2426 20C4                         i1l2418 2094                         i1l3074 00EC  
                       i1l3066 00B6                         i1l3058 006C                         i1l2428 20D0  
                       i1l3076 010C                         i1l3068 00C8                         i1l2472 268E  
                       i1l2394 1FF8                         i1l2474 26A4                         i1l2396 1FFE  
                       i1l2900 24CC                         i1l2398 200C                         i2l3020 1A6C  
                       i2l3030 1AAA                         i2l3022 1A70                         i2l3040 1B0C  
                       i2l3032 1ABE                         i2l3024 1A96                         i2l3042 1B0E  
                       i2l3034 1ADA                         i2l3026 1A9E                         i2l3018 1A5E  
                       i2l2500 1E6E                         i2l3044 1B22                         i2l3036 1AE6  
                       i2l3028 1AA6                         i1l2892 2482                         i2l2510 1EB2  
                       i2l2502 1E76                         i2l3038 1AEE                         i1l2894 2494  
                       i2l2520 1EE2                         i2l2512 1EB8                         i2l2504 1E88  
                       i2l2600 0B32                         i1l2896 24A6                         i2l2514 1ECE  
                       i2l2506 1E90                         i2l2522 1EF0                         i2l2610 0B90  
                       i2l2602 0B42                         i2l2530 18EA                         i1l2898 24AC  
                       i2l2524 1F00                         i2l2516 1ED6                         i2l2508 1E9C  
                       i2l2700 0EEC                         i2l2620 0BD4                         i2l2612 0BA4  
                       i2l2604 0B56                         i2l2540 1944                         i2l2532 1900  
                       i2l2526 1F0C                         i2l2518 1EDC                         i2l2702 0F00  
                       i2l2630 0C1E                         i2l2622 0BE0                         i2l2614 0BA8  
                       i2l2606 0B5C                         i2l2550 198E                         i2l2542 1954  
                       i2l2534 1914                         i2l2710 1624                         i2l2528 1F18  
                       i2l2640 0C70                         i2l2632 0C2A                         i2l2624 0BF8  
                       i2l2616 0BB4                         i2l2608 0B7C                         i2l2560 19D2  
                       i2l2552 1996                         i2l2544 1958                         i2l2536 1918  
                       i2l2480 25F8                         i2l2720 166A                         i2l2712 163A  
                       i2l2704 15BC                         i2l2490 1E40                         i2l2650 0CEE  
                       i2l2642 0C80                         i2l2634 0C3A                         i2l2626 0C04  
                       i2l2618 0BBE                         i2l2570 1A26                         i2l2562 19DA  
                       i2l2554 19A0                         i2l2546 1966                         i2l2538 1942  
                       i2l2482 2614                         i2l2730 16FE                         i2l2722 16A0  
                       i2l2714 164E                         i2l2706 15CC                         i2l2476 26AC  
                       i2l2492 1E48                         i2l2660 0D68                         i2l2652 0D24  
                       i2l2644 0C9C                         i2l2636 0C46                         i2l2628 0C10  
                       i2l2580 0AB4                         i2l2572 1A3A                         i2l2564 19EA  
                       i2l2548 197A                         i2l2556 19AE                         i2l2484 2620  
                       i2l2740 175C                         i2l2732 170C                         i2l2724 16A2  
                       i2l2716 1652                         i2l2708 15DA                         i2l2478 26C2  
                       i2l2494 1E50                         i2l2486 1E2E                         i2l2670 0DD0  
                       i2l2662 0D7E                         i2l2654 0D32                         i2l2646 0CA8  
                       i2l2638 0C56                         i2l2590 0B02                         i2l2582 0AC4  
                       i2l2574 0A94                         i2l2558 19BE                         i2l2566 1A02  
                       i2l2742 176C                         i2l2734 172E                         i2l2726 16AE  
                       i2l2718 165A                         i2l2910 1228                         i2l2902 1182  
                       i2l2750 2380                         i2l2496 1E5E                         i2l2488 1E32  
                       i2l2680 0E46                         i2l2672 0DE6                         i2l2664 0D90  
                       i2l2656 0D50                         i2l2648 0CC4                         i2l2592 0B08  
                       i2l2584 0AD4                         i2l2576 0AA0                         i2l2568 1A12  
                       i2l2744 177A                         i2l2736 1734                         i2l2728 16EE  
                       i2l2920 12B8                         i2l2912 1256                         i2l2904 1192  
                       i2l2760 23D6                         i2l2752 239A                         i2l2498 1E66  
                       i2l2690 0EB6                         i2l2674 0E02                         i2l2682 0E52  
                       i2l2666 0D94                         i2l2658 0D5A                         i2l2594 0B0E  
                       i2l2586 0AE8                         i2l2578 0AAE                         i2l2746 1780  
                       i2l2738 1738                         i2l2930 1352                         i2l2922 12D2  
                       i2l2914 1270                         i2l2906 11DE                         i2l2754 23A6  
                       i2l2770 242C                         i2l2762 23D8                         i2l2692 0EC6  
                       i2l2684 0E6C                         i2l2676 0E0E                         i2l2668 0DA2  
                       i2l2596 0B1C                         i2l2588 0AEE                         i2l2748 1794  
                       i2l2940 13D2                         i2l2932 136C                         i2l2924 130E  
                       i2l2916 12AC                         i2l2908 1222                         i2l2756 23AA  
                       i2l2764 23E4                         i2l2780 1C94                         i2l2772 1C44  
                       i2l2694 0ED4                         i2l2686 0E80                         i2l2678 0E1C  
                       i2l2598 0B22                         i2l2934 13A8                         i2l2918 12B2  
                       i2l2926 1318                         i2l2758 23CA                         i2l2766 23EC  
                       i2l2790 1D3E                         i2l2782 1CAC                         i2l2774 1C6E  
                       i2l2950 2136                         i2l2942 20D2                         i2l2696 0EDA  
                       i2l2688 0E9A                         i2l2928 1346                         i2l2936 13B2  
                       i2l2768 240C                         i2l2784 1CC8                         i2l2776 1C7A  
                       i2l2960 21A8                         i2l2952 213A                         i2l2944 20E4  
                       i2l2698 0EE8                         i2l2938 13CC                         i2l2786 1CDA  
                       i2l2778 1C82                         i2l2946 20FC                         i2l2954 2166  
                       i2l2788 1D0A                         i2l2956 2178                         i2l2948 212A  
                       i2l2958 219C                         _TMR1IF 007CF0                         _TMR3ON 007D88  
             __end_of___xxtofl 15BA                         _Hi_ISR 0008                      ??_Mode2_1 008D  
                       _Lo_ISR 0018                i2PrintVoltage@c 0038                 __CFG_XINST$OFF 000000  
          __size_of_UART_Write 0020                         ___wmul 25A2                      ??___awdiv 008F  
               __CFG_STVREN$ON 000000                      ??___awmod 0084                      ??___flmul 00A1  
                    ??___fltol 00B6                ADC_Read@channel 008B                         _lenStr 00C9  
              ?i2_PrintVoltage 0032                ADC_Read@digital 008F                         clear_0 25D4  
                       clear_1 25E0               ___awdiv@quotient 0091                ___awmod@divisor 0082  
              ___awmod@counter 0084               PrintVoltage@temp 00C3                         _strchr 2326  
                       _strlen 22CC                 i2___awdiv@sign 0006                         _strstr 1F1A  
            __end_ofi2___awdiv 1F1A              __end_ofi2___flmul 0F02              __end_ofi2___fltol 1A3C  
                    ?_ADC_Read 008B                   __mediumconst 0000                         tblptrh 000FF7  
                       tblptrl 000FF6                         tblptru 000FF8               __end_of_tmr_init 26F0  
               i2___flmul@aexp 0020                 i2___flmul@bexp 0021                      ??_strncmp 0091  
               i2___flmul@sign 001B                 i2___flmul@temp 0026                 i2___flmul@prod 0022  
__size_of_INTERRUPT_Initialize 0008                   ___xxtofl@arg 0095                   ___xxtofl@exp 0094  
                 ___xxtofl@val 008B             __size_of_ccp2_init 0016                     __accesstop 0080  
      __end_of__initialization 25E6                 i2___fltol@exp1 0031                      ?_LED_Init 0001  
                ___rparam_used 000001                     ___fltol@f1 00B2              __end_ofi2_strncmp 1D40  
          __size_ofi2___xxtofl 01DC                  ?i1_UART_Write 0001                  __end_of_Mode3 25A2  
               __pcstackCOMRAM 0001                      ?i2___wmul 0009                     ??_ADC_Read 008D  
                ??_MyusartRead 0086                        ??_Mode3 00C5                  ?i2_UART_Write 0001  
                    ?i2_strchr 0001                      ?i2_strlen 0001                      ?i2_strstr 000E  
                   __pbssBANK0 00C7                     ??_LED_Init 008B                        ?_Hi_ISR 0001  
             i2UART_Write@data 0001                        ?_Lo_ISR 0001                    i2strncmp@_l 0001  
                  i2strncmp@_r 0003                 ??i1_UART_Write 0080                        ?___wmul 0093  
            __end_of_ccp2_init 26DE                        ?_strchr 008B                        ?_strlen 008B  
                      ?_strstr 0098                     ??i2___wmul 000D                      ?___xxtofl 008B  
               ??i2_UART_Write 0001                   ??_UART_Write 008B                     ??i2_strchr 0005  
                   ??i2_strlen 0003                     ??i2_strstr 0012                   ?_ClearBuffer 0001  
          __end_of_MyusartRead 24CE                        _Mode2_1 2622                __size_of_Hi_ISR 1B3E  
              __size_of_Lo_ISR 010C                        __Hparam 0000                        __Lparam 0000  
                      ___awdiv 1D40                        ___awmod 1FF8                        ___flmul 0624  
                      ___fltol 1796                __size_of___wmul 002C                  ?_PrintVoltage 00BC  
           __end_of_UART_Write 268A                      ?_tmr_init 0001                   __psmallconst 0600  
                      __pcinit 25CE                        __ramtop 0600                        __ptext0 21AA  
                      __ptext1 1F1A                        __ptext2 1B46                        __ptext3 22CC  
                      __ptext4 2326                        __ptext5 2648                        __ptext6 2570  
                      __ptext7 253C                        __ptext8 0F02                        __ptext9 13DA  
              __size_of_strchr 005A                __size_of_strlen 005A                      _T1CONbits 000FCD  
              __size_of_strstr 00DE                   ??i2___xxtofl 0005                     ??___xxtofl 008F  
                    _T3CONbits 000FB1               ___awmod@dividend 0080       __size_of_UART_Initialize 0022  
                      _strncmp 1B46                 __pintcode_body 1A3C           end_of_initialization 25E6  
                      int_func 1A3C            i2___wmul@multiplier 0009                 i2___xxtofl@arg 000B  
               i2___xxtofl@exp 000A                 i2___xxtofl@val 0001               ??i2_PrintVoltage 0034  
                    _RCSTAbits 000FAB             __end_ofi2___xxtofl 1796                 ??_PrintVoltage 00BE  
                      postinc0 000FEE                        postinc2 000FDE                     ??_tmr_init 008B  
                      strchr@c 008D                        strchr@s 008B                        strlen@a 008F  
                      strlen@s 008B                        strstr@h 0098                        strstr@n 009A  
               UART_Write@data 008B                  ___xxtofl@sign 0093                      _TRISCbits 000F94  
                    _TRISEbits 000F96                    _MyusartRead 2482           __end_ofi1_UART_Write 26AA  
              i2___fltol@sign1 0030              __size_of_ADC_Read 0054                      i2___awdiv 1E2E  
                    i2___flmul 0A94                      i2___fltol 18EA                    ___flmul@grs 00A6  
                  _CCP1CONbits 000FBD                      _TXSTAbits 000FAC             i2___awdiv@dividend 0001  
               __end_of_Hi_ISR 1B46              __size_of_LED_Init 0038                 __end_of_Lo_ISR 0124  
         __end_ofi2_UART_Write 26C8          i2PrintVoltage@digital 0032   __end_of_INTERRUPT_Initialize 26F8  
                    i2_strncmp 1C44                 __end_of___wmul 25CE                    _BAUDCONbits 000FB8  
             i2___wmul@product 000D          i2PrintVoltage@voltage 0034                 __end_of_strchr 2380  
               __end_of_strlen 2326                 __end_of_strstr 1FF8            start_initialization 25CE  
           i2___awdiv@quotient 0007              __size_ofi2___wmul 002A             i2PrintVoltage@temp 0039  
                   ?i2___awdiv 0001                     ?i2___flmul 000F                     ?i2___fltol 0028  
                 ClearBuffer@i 008B                      i2strchr@c 0003                      i2strchr@s 0001  
            __size_ofi2_strchr 0058              __size_ofi2_strlen 0056                      i2strlen@a 0005  
                    i2strlen@s 0001              __size_ofi2_strstr 00D8              ??_UART_Initialize 008B  
                    i2strstr@h 000E                      i2strstr@n 0010           __size_of_ClearBuffer 006C  
             __CFG_OSC$INTIO67 000000                       ??_Hi_ISR 003B                       ??_Lo_ISR 0086  
                     ??___wmul 0097                     ?i2_strncmp 0001               __CFG_LPT1OSC$OFF 000000  
                     ??_strchr 008F                       ??_strlen 008D                       ??_strstr 009C  
                ?_adc_init_2_1 0001                  ?_adc_init_2_2 0001                      ___flmul@a 009D  
                    ___flmul@b 0099                    __pbssCOMRAM 0045                      _ccp2_init 26C8  
                __pcstackBANK0 0080              __size_of___xxtofl 01E0           __end_of_PrintVoltage 1182  
                     ?_Mode2_1 0001              __CFG_CCP2MX$PORTC 000000                      __pintcode 0008  
                     ?___awdiv 008B                       ?___awmod 0080                       ?___flmul 0099  
                     ?___fltol 00B2                    __pintcodelo 0018              __size_of_tmr_init 0012  
        __size_ofi1_UART_Write 0020                 ??_adc_init_2_1 008B                 ??_adc_init_2_2 008B  
                  __smallconst 0600                       _ADC_Read 242E                     ?_ccp2_init 0001  
               __size_of_Mode3 0032                    ??i2___awdiv 0005                    ??i2___flmul 0017  
                  ??i2___fltol 002C                       ?_strncmp 008B           _INTERRUPT_Initialize 26F0  
               ___wmul@product 0097          __size_ofi2_UART_Write 001E                       _LED_Init 24CE  
                     _IPR1bits 000F9F                       _PIE1bits 000F9D                       i1u207_20 26A0  
                     i1u207_21 269C                       i1u280_20 003C                       i1u280_21 0038  
                     i1u193_20 200C                       i1u281_20 004A                       i1u193_21 2008  
                     i1u281_21 0046                       i1u194_20 202A                       i1u282_20 006A  
                     i1u194_21 2026                       i1u282_21 0066                       i2u210_40 1E5E  
                     i2u210_41 1E5A                       i1u195_20 2048                       i1u283_20 0080  
                     i1u195_21 2044                       i1u283_21 007C                       i2u211_40 1E88  
                     i2u211_41 1E84                       i1u196_20 206A                       i1u284_20 0090  
                     i1u196_21 2066                       i1u284_21 008C                       i2u212_40 1EAA  
                     i2u220_40 19FA                       i2u212_41 1EA6                       i2u220_41 19F6  
                     i1u197_20 2088                       i1u285_20 00A6                       i1u197_21 2084  
                     i1u285_21 00A2                       i2u213_40 1ECE                       i2u221_40 1A12  
                     i2u213_41 1ECA                       i2u221_41 1A0E                       i1u198_20 20B8  
                     i1u286_20 00C8                       i1u198_21 20B4                       i1u286_21 00C4  
                     i2u214_40 1F00                       i2u230_40 0D0E                       i2u222_40 0AAE  
                     i2u214_41 1EFC                       i2u222_41 0AAA                       i1u287_20 00D8  
                     i2u230_45 0D04                       i1u287_21 00D4                       i2u231_40 0D68  
                     i2u223_40 0AC4                       i2u215_40 1900                       i2u231_41 0D64  
                     i2u223_41 0AC0                       i2u215_41 18FC                       i1u288_20 00EC  
                     i1u288_21 00E8                       i2u208_40 26BE                       i2u240_40 0ED4  
                     i2u232_40 0D8C                       i2u224_40 0AD4                       i2u216_40 1938  
                     i2u208_41 26BA                       i2u240_41 0ED0                       i2u232_41 0D88  
                     i2u224_41 0AD0                       i2u216_45 192E                       i2u209_40 1E40  
                     i2u233_40 0DA2                       i2u225_40 0B1C                       i2u217_40 1966  
                     i2u241_40 15CC                       i2u209_41 1E3C                       i2u233_41 0D9E  
                     i2u225_41 0B18                       i2u217_41 1962                       i2u241_41 15C8  
                     i2u234_40 0DD0                       i2u226_40 0B32                       i2u218_40 197A  
                     i2u250_40 177A                       i2u242_40 15DA                       i2u234_41 0DCC  
                     i2u226_41 0B2E                       i2u218_41 1976                       i2u250_41 1776  
                     i2u242_41 15D6                       i2u235_40 0DE6                       i2u227_40 0B42  
                     i2u219_40 19BE                       i2u243_40 163A                       i2u251_40 239A  
                     i2u235_41 0DE2                       i2u227_41 0B3E                       i2u219_41 19BA  
                     i2u243_41 1636                       i2u251_41 2396                       i2u236_40 0E02  
                     i2u228_40 0B7C                       i2u244_40 1698                       i2u252_40 23C6  
                     i2u236_41 0DFE                       i2u228_41 0B78                       i2u244_41 1694  
                     i2u252_41 23C2                       i2u237_40 0E1C                       i2u229_40 0B8C  
                     i2u245_40 16E6                       i2u253_40 2408                       i2u237_41 0E18  
                     i2u229_41 0B88                       i2u245_41 16E2                       i2u253_41 2404  
                     i2u238_40 0E6C                       i2u246_40 170C                       i2u254_40 1C6E  
                     i2u238_41 0E68                       i2u246_41 1708                       i2u254_41 1C6A  
                     i2u239_40 0E9A                       i2u247_40 171C                       i2u263_40 1256  
                     i2u255_40 1CAC                       i2u239_41 0E96                       i2u247_41 1718  
                     i2u263_41 1252                       i2u255_41 1CA8                       i2u248_40 172E  
                     i2u264_40 1346                       i2u256_40 1CC8                       i2u248_41 172A  
                     i2u264_41 1342                       i2u256_41 1CC4                       i2u249_40 176C  
                     i2u257_40 1CDA                       i2u265_40 20E4                       i2u249_41 1768  
                     i2u257_41 1CD6                       i2u265_41 20E0                       _PIR1bits 000F9E  
                     i2u258_40 1D02                       i2u266_40 212A                       i2u258_41 1CFE  
                     i2u266_41 2126                       i2u267_40 2178                       i2u267_41 2174  
                     _PIR2bits 000FA1                       i2u268_40 2190                       i2u276_40 1A6C  
                     i2u268_41 218C                       i2u276_41 1A68                       i2u277_40 1A96  
                     i2u277_41 1A92                       i2u278_40 1ABE                       i2u278_41 1ABA  
                     i2u279_40 1B0C                       i2u279_41 1B08                   i1_UART_Write 268A  
                     _RCONbits 000FD0            PrintVoltage@digital 00BC                    ??i2_strncmp 0007  
                   _ADCON0bits 000FC2                     _ADCON1bits 000FC1                     _ADCON2bits 000FC0  
            ___wmul@multiplier 0093                       i2___wmul 25F8            PrintVoltage@voltage 00BE  
            i2___awdiv@divisor 0003                   ?_MyusartRead 0001              i2___awdiv@counter 0005  
                 i2_UART_Write 26AA                       i2_strchr 2380                       i2_strlen 23D8  
                     i2_strstr 20D2          ?_INTERRUPT_Initialize 0001                  PrintVoltage@c 00C2  
             i1UART_Write@data 0080               __size_of_Mode2_1 0026                       __Hrparam 0000  
                     __Lrparam 0000                   __Lsmallconst 0600             __CFG_BOREN$SBORDIS 000000  
             __size_of___awdiv 00EE               __size_of___awmod 00DA               __size_of___flmul 0470  
             __size_of___fltol 0154          i2___wmul@multiplicand 000B                _UART_Initialize 2648  
        __size_of_PrintVoltage 0280                       ___xxtofl 13DA                    ??_ccp2_init 008B  
                     __ptext10 25A2                       __ptext11 1796                       __ptext20 2260  
                     __ptext12 0624                       __ptext21 24CE                       __ptext13 1D40  
                     __ptext30 23D8                       __ptext22 26F0                       __ptext14 266A  
                     __ptext31 2380                       __ptext15 242E                       __ptext32 1182  
                     __ptext24 2482                       __ptext16 2622                       __ptext33 15BA  
                     __ptext25 268A                       __ptext17 26DE                       __ptext34 25F8  
                     __ptext26 1FF8                       __ptext18 26C8                       __ptext35 18EA  
                     __ptext19 2506                       __ptext36 0A94                       __ptext28 20D2  
                     __ptext37 1E2E                       __ptext29 1C44                       __ptext38 26AA  
             __size_of_strncmp 00FE                  __size_of_main 00B6           __end_of_adc_init_2_1 253C  
         __end_of_adc_init_2_2 2570                       int$flags 0053                       _tmr_init 26DE  
                 _PrintVoltage 0F02                       _mystring 00CB        __size_ofi2_PrintVoltage 0258  
                   _INTCONbits 000FF2         ??_INTERRUPT_Initialize 008B                  ??_ClearBuffer 008B  
                     intlevel1 0000                       intlevel2 0000                i2___xxtofl@sign 0009  
                    strncmp@_l 008B                      strncmp@_r 008D        __end_of_UART_Initialize 266A  
                     strncmp@l 0094                       strncmp@n 008F                       strncmp@r 0096  
                   _UART_Write 266A                       strstr@nl 009C           __size_of_MyusartRead 004C  
          __end_of_ClearBuffer 22CC  
